---
triple:          'x86_64-apple-darwin'
binary-path:     DTree
relocations:
  - { offsetInCU: 0x8D, offset: 0x8D, size: 0x8, addend: 0x0, symName: __ZNSt3__119piecewise_constructE, symObjAddr: 0x760C, symBinAddr: 0x10002EB5F, symSize: 0x0 }
  - { offsetInCU: 0x14137, offset: 0x14137, size: 0x8, addend: 0x0, symName: __ZNSt3__124__put_character_sequenceB8ue170006IcNS_11char_traitsIcEEEERNS_13basic_ostreamIT_T0_EES7_PKS4_m, symObjAddr: 0x4C50, symBinAddr: 0x100006290, symSize: 0x150 }
  - { offsetInCU: 0x1AFE5, offset: 0x1AFE5, size: 0x8, addend: 0x0, symName: __ZNSt3__17getlineB8ue170006IcNS_11char_traitsIcEENS_9allocatorIcEEEERNS_13basic_istreamIT_T0_EES9_RNS_12basic_stringIS6_S7_T1_EES6_, symObjAddr: 0x4EF0, symBinAddr: 0x100006530, symSize: 0x150 }
  - { offsetInCU: 0x1F4EB, offset: 0x1F4EB, size: 0x8, addend: 0x0, symName: __ZNSt3__127__tree_balance_after_insertB8ue170006IPNS_16__tree_node_baseIPvEEEEvT_S5_, symObjAddr: 0x6C60, symBinAddr: 0x1000082A0, symSize: 0x160 }
  - { offsetInCU: 0x1F7CC, offset: 0x1F7CC, size: 0x8, addend: 0x0, symName: __ZNSt3__126__throw_bad_variant_accessB8ue170006Ev, symObjAddr: 0x4AD0, symBinAddr: 0x100006110, symSize: 0x40 }
  - { offsetInCU: 0x1F822, offset: 0x1F822, size: 0x8, addend: 0x0, symName: __ZNSt3__120__throw_length_errorB8ue170006EPKc, symObjAddr: 0x4660, symBinAddr: 0x100005CA0, symSize: 0x50 }
  - { offsetInCU: 0x1FBA5, offset: 0x1FBA5, size: 0x8, addend: 0x0, symName: __ZNSt3__116__pad_and_outputB8ue170006IcNS_11char_traitsIcEEEENS_19ostreambuf_iteratorIT_T0_EES6_PKS4_S8_S8_RNS_8ios_baseES4_, symObjAddr: 0x4DA0, symBinAddr: 0x1000063E0, symSize: 0x150 }
  - { offsetInCU: 0x20D14, offset: 0x20D14, size: 0x8, addend: 0x0, symName: __ZSt28__throw_bad_array_new_lengthB8ue170006v, symObjAddr: 0x46E0, symBinAddr: 0x100005D20, symSize: 0x40 }
  - { offsetInCU: 0x253AD, offset: 0x253AD, size: 0x8, addend: 0x0, symName: __Z20checkExistanceOfFileNSt3__112basic_stringIcNS_11char_traitsIcEENS_9allocatorIcEEEES5_, symObjAddr: 0x0, symBinAddr: 0x100001640, symSize: 0x4A0 }
  - { offsetInCU: 0x25FF8, offset: 0x25FF8, size: 0x8, addend: 0x0, symName: __ZNSt3__114basic_ifstreamIcNS_11char_traitsIcEEEC1ERKNS_12basic_stringIcS2_NS_9allocatorIcEEEEj, symObjAddr: 0x4A0, symBinAddr: 0x100001AE0, symSize: 0x130 }
  - { offsetInCU: 0x26175, offset: 0x26175, size: 0x8, addend: 0x0, symName: __ZNSt3__114basic_ifstreamIcNS_11char_traitsIcEEED1Ev, symObjAddr: 0x5D0, symBinAddr: 0x100001C10, symSize: 0x50 }
  - { offsetInCU: 0x286EA, offset: 0x286EA, size: 0x8, addend: 0x0, symName: _main, symObjAddr: 0x620, symBinAddr: 0x100001C60, symSize: 0x3EB0 }
  - { offsetInCU: 0x3C9F8, offset: 0x3C9F8, size: 0x8, addend: 0x0, symName: __ZNSt3__112basic_stringIcNS_11char_traitsIcEENS_9allocatorIcEEE17__assign_externalEPKcm, symObjAddr: 0x4720, symBinAddr: 0x100005D60, symSize: 0x150 }
  - { offsetInCU: 0x3D0BC, offset: 0x3D0BC, size: 0x8, addend: 0x0, symName: __ZNSt3__112__hash_tableINS_17__hash_value_typeINS_12basic_stringIcNS_11char_traitsIcEENS_9allocatorIcEEEENS_6vectorIfNS5_IfEEEEEENS_22__unordered_map_hasherIS7_SB_NS_4hashIS7_EENS_8equal_toIS7_EELb1EEENS_21__unordered_map_equalIS7_SB_SG_SE_Lb1EEENS5_ISB_EEE25__emplace_unique_key_argsIS7_JRKNS_21piecewise_construct_tENS_5tupleIJRKS7_EEENSQ_IJEEEEEENS_4pairINS_15__hash_iteratorIPNS_11__hash_nodeISB_PvEEEEbEERKT_DpOT0_, symObjAddr: 0x5250, symBinAddr: 0x100006890, symSize: 0x6A0 }
  - { offsetInCU: 0x3DCCD, offset: 0x3DCCD, size: 0x8, addend: 0x0, symName: __ZNSt3__112__hash_tableINS_17__hash_value_typeINS_12basic_stringIcNS_11char_traitsIcEENS_9allocatorIcEEEENS_6vectorIfNS5_IfEEEEEENS_22__unordered_map_hasherIS7_SB_NS_4hashIS7_EENS_8equal_toIS7_EELb1EEENS_21__unordered_map_equalIS7_SB_SG_SE_Lb1EEENS5_ISB_EEE4findIS7_EENS_15__hash_iteratorIPNS_11__hash_nodeISB_PvEEEERKT_, symObjAddr: 0x6010, symBinAddr: 0x100007650, symSize: 0x2F0 }
  - { offsetInCU: 0x3DF93, offset: 0x3DF93, size: 0x8, addend: 0x0, symName: __ZNSt3__112__hash_tableINS_17__hash_value_typeINS_12basic_stringIcNS_11char_traitsIcEENS_9allocatorIcEEEENS_6vectorIfNS5_IfEEEEEENS_22__unordered_map_hasherIS7_SB_NS_4hashIS7_EENS_8equal_toIS7_EELb1EEENS_21__unordered_map_equalIS7_SB_SG_SE_Lb1EEENS5_ISB_EEE13__move_assignERSL_NS_17integral_constantIbLb1EEE, symObjAddr: 0x50C0, symBinAddr: 0x100006700, symSize: 0x190 }
  - { offsetInCU: 0x3E64F, offset: 0x3E64F, size: 0x8, addend: 0x0, symName: __ZNSt3__16vectorIfNS_9allocatorIfEEE18__assign_with_sizeB8ue170006IPfS5_EEvT_T0_l, symObjAddr: 0x4870, symBinAddr: 0x100005EB0, symSize: 0x150 }
  - { offsetInCU: 0x3F080, offset: 0x3F080, size: 0x8, addend: 0x0, symName: __ZNSt3__113unordered_mapINS_12basic_stringIcNS_11char_traitsIcEENS_9allocatorIcEEEENS_6vectorIfNS4_IfEEEENS_4hashIS6_EENS_8equal_toIS6_EENS4_INS_4pairIKS6_S9_EEEEEC2ERKSI_, symObjAddr: 0x6300, symBinAddr: 0x100007940, symSize: 0x1C0 }
  - { offsetInCU: 0x3F4EB, offset: 0x3F4EB, size: 0x8, addend: 0x0, symName: __ZNSt3__16vectorIfNS_9allocatorIfEEEC2INS_21__tree_const_iteratorIfPNS_11__tree_nodeIfPvEElEELi0EEET_SB_, symObjAddr: 0x4B20, symBinAddr: 0x100006160, symSize: 0x130 }
  - { offsetInCU: 0x3FB04, offset: 0x3FB04, size: 0x8, addend: 0x0, symName: __ZNSt3__16__treeIfNS_4lessIfEENS_9allocatorIfEEE7destroyEPNS_11__tree_nodeIfPvEE, symObjAddr: 0x6C20, symBinAddr: 0x100008260, symSize: 0x40 }
  - { offsetInCU: 0x3FC75, offset: 0x3FC75, size: 0x8, addend: 0x0, symName: __ZNSt3__112__tuple_implINS_15__tuple_indicesIJLm0ELm1ELm2ELm3EEEEJNS_13unordered_mapINS_12basic_stringIcNS_11char_traitsIcEENS_9allocatorIcEEEENS_6vectorIfNS7_IfEEEENS_4hashIS9_EENS_8equal_toIS9_EENS7_INS_4pairIKS9_SC_EEEEEESL_SC_SC_EED2Ev, symObjAddr: 0x49D0, symBinAddr: 0x100006010, symSize: 0x100 }
  - { offsetInCU: 0x40B00, offset: 0x40B00, size: 0x8, addend: 0x0, symName: __ZNKSt3__112basic_stringIcNS_11char_traitsIcEENS_9allocatorIcEEE20__throw_length_errorB8ue170006Ev, symObjAddr: 0x4650, symBinAddr: 0x100005C90, symSize: 0x10 }
  - { offsetInCU: 0x40B2A, offset: 0x40B2A, size: 0x8, addend: 0x0, symName: __ZNSt3__120__throw_length_errorB8ue170006EPKc, symObjAddr: 0x4660, symBinAddr: 0x100005CA0, symSize: 0x50 }
  - { offsetInCU: 0x40B35, offset: 0x40B35, size: 0x8, addend: 0x0, symName: __ZNKSt3__16vectorIfNS_9allocatorIfEEE20__throw_length_errorB8ue170006Ev, symObjAddr: 0x49C0, symBinAddr: 0x100006000, symSize: 0x10 }
  - { offsetInCU: 0x40B5F, offset: 0x40B5F, size: 0x8, addend: 0x0, symName: __ZNSt3__112__tuple_implINS_15__tuple_indicesIJLm0ELm1ELm2ELm3EEEEJNS_13unordered_mapINS_12basic_stringIcNS_11char_traitsIcEENS_9allocatorIcEEEENS_6vectorIfNS7_IfEEEENS_4hashIS9_EENS_8equal_toIS9_EENS7_INS_4pairIKS9_SC_EEEEEESL_SC_SC_EED2Ev, symObjAddr: 0x49D0, symBinAddr: 0x100006010, symSize: 0x100 }
  - { offsetInCU: 0x40B6A, offset: 0x40B6A, size: 0x8, addend: 0x0, symName: __ZNSt3__113unordered_mapINS_12basic_stringIcNS_11char_traitsIcEENS_9allocatorIcEEEENS_6vectorIfNS4_IfEEEENS_4hashIS6_EENS_8equal_toIS6_EENS4_INS_4pairIKS6_S9_EEEEED1B8ue170006Ev, symObjAddr: 0x44D0, symBinAddr: 0x100005B10, symSize: 0x80 }
  - { offsetInCU: 0x4110F, offset: 0x4110F, size: 0x8, addend: 0x0, symName: __ZNSt3__16vectorINS_12basic_stringIcNS_11char_traitsIcEENS_9allocatorIcEEEENS4_IS6_EEED1B8ue170006Ev, symObjAddr: 0x4550, symBinAddr: 0x100005B90, symSize: 0x70 }
  - { offsetInCU: 0x413C5, offset: 0x413C5, size: 0x8, addend: 0x0, symName: __ZNSt3__16vectorINS0_IiNS_9allocatorIiEEEENS1_IS3_EEED1B8ue170006Ev, symObjAddr: 0x45C0, symBinAddr: 0x100005C00, symSize: 0x80 }
  - { offsetInCU: 0x416B4, offset: 0x416B4, size: 0x8, addend: 0x0, symName: __ZNSt12length_errorC1B8ue170006EPKc, symObjAddr: 0x46B0, symBinAddr: 0x100005CF0, symSize: 0x30 }
  - { offsetInCU: 0x41A0D, offset: 0x41A0D, size: 0x8, addend: 0x0, symName: __ZNSt18bad_variant_accessD1Ev, symObjAddr: 0x4B10, symBinAddr: 0x100006150, symSize: 0x10 }
  - { offsetInCU: 0x41EB1, offset: 0x41EB1, size: 0x8, addend: 0x0, symName: __ZNSt3__112__hash_tableINS_17__hash_value_typeINS_12basic_stringIcNS_11char_traitsIcEENS_9allocatorIcEEEENS_6vectorIfNS5_IfEEEEEENS_22__unordered_map_hasherIS7_SB_NS_4hashIS7_EENS_8equal_toIS7_EELb1EEENS_21__unordered_map_equalIS7_SB_SG_SE_Lb1EEENS5_ISB_EEED1Ev, symObjAddr: 0x5040, symBinAddr: 0x100006680, symSize: 0x80 }
  - { offsetInCU: 0x429B1, offset: 0x429B1, size: 0x8, addend: 0x0, symName: __ZNKSt3__121__murmur2_or_cityhashImLm64EEclB8ue170006EPKvm, symObjAddr: 0x5950, symBinAddr: 0x100006F90, symSize: 0x4B0 }
  - { offsetInCU: 0x43475, offset: 0x43475, size: 0x8, addend: 0x0, symName: __ZNSt3__112__hash_tableINS_17__hash_value_typeINS_12basic_stringIcNS_11char_traitsIcEENS_9allocatorIcEEEENS_6vectorIfNS5_IfEEEEEENS_22__unordered_map_hasherIS7_SB_NS_4hashIS7_EENS_8equal_toIS7_EELb1EEENS_21__unordered_map_equalIS7_SB_SG_SE_Lb1EEENS5_ISB_EEE11__do_rehashILb1EEEvm, symObjAddr: 0x5E00, symBinAddr: 0x100007440, symSize: 0x210 }
  - { offsetInCU: 0x438EE, offset: 0x438EE, size: 0x8, addend: 0x0, symName: __ZNSt3__110unique_ptrINS_11__hash_nodeINS_17__hash_value_typeINS_12basic_stringIcNS_11char_traitsIcEENS_9allocatorIcEEEENS_6vectorIfNS6_IfEEEEEEPvEENS_22__hash_node_destructorINS6_ISE_EEEEED1B8ue170006Ev, symObjAddr: 0x58F0, symBinAddr: 0x100006F30, symSize: 0x60 }
  - { offsetInCU: 0x4430A, offset: 0x4430A, size: 0x8, addend: 0x0, symName: __ZNSt3__112__hash_tableINS_17__hash_value_typeINS_12basic_stringIcNS_11char_traitsIcEENS_9allocatorIcEEEENS_6vectorIfNS5_IfEEEEEENS_22__unordered_map_hasherIS7_SB_NS_4hashIS7_EENS_8equal_toIS7_EELb1EEENS_21__unordered_map_equalIS7_SB_SG_SE_Lb1EEENS5_ISB_EEE25__emplace_unique_key_argsIS7_JRKNS_4pairIKS7_SA_EEEEENSN_INS_15__hash_iteratorIPNS_11__hash_nodeISB_PvEEEEbEERKT_DpOT0_, symObjAddr: 0x64C0, symBinAddr: 0x100007B00, symSize: 0x640 }
  - { offsetInCU: 0x44B39, offset: 0x44B39, size: 0x8, addend: 0x0, symName: __ZNSt3__14pairIKNS_12basic_stringIcNS_11char_traitsIcEENS_9allocatorIcEEEENS_6vectorIfNS4_IfEEEEEC2B8ue170006ERKSB_, symObjAddr: 0x6B00, symBinAddr: 0x100008140, symSize: 0x120 }
  - { offsetInCU: 0x45403, offset: 0x45403, size: 0x8, addend: 0x0, symName: __ZNSt3__14pairIKNS_12basic_stringIcNS_11char_traitsIcEENS_9allocatorIcEEEENS_6vectorIfNS4_IfEEEEEC2B8ue170006ERKSB_.cold.1, symObjAddr: 0x6DC0, symBinAddr: 0x10002CE10, symSize: 0x15 }
  - { offsetInCU: 0x15F07, offset: 0x5B4BC, size: 0x8, addend: 0x0, symName: __ZNSt3__1plB8ue170006IcNS_11char_traitsIcEENS_9allocatorIcEEEENS_12basic_stringIT_T0_T1_EERKS9_PKS6_, symObjAddr: 0x28F0, symBinAddr: 0x10000A930, symSize: 0x100 }
  - { offsetInCU: 0x19496, offset: 0x5EA4B, size: 0x8, addend: 0x0, symName: __ZNSt3__124uniform_int_distributionIlEclINS_23mersenne_twister_engineIjLm32ELm624ELm397ELm31ELj2567483615ELm11ELj4294967295ELm7ELj2636928640ELm15ELj4022730752ELm18ELj1812433253EEEEElRT_RKNS1_10param_typeE, symObjAddr: 0x6D50, symBinAddr: 0x10000D950, symSize: 0x240 }
  - { offsetInCU: 0x1C1F9, offset: 0x617AE, size: 0x8, addend: 0x0, symName: __Z5rtrimRKNSt3__112basic_stringIcNS_11char_traitsIcEENS_9allocatorIcEEEE, symObjAddr: 0x23A0, symBinAddr: 0x10000A520, symSize: 0x290 }
  - { offsetInCU: 0x1C81F, offset: 0x61DD4, size: 0x8, addend: 0x0, symName: __Z5ltrimRKNSt3__112basic_stringIcNS_11char_traitsIcEENS_9allocatorIcEEEE, symObjAddr: 0x20D0, symBinAddr: 0x10000A250, symSize: 0x2D0 }
  - { offsetInCU: 0x1D4F1, offset: 0x62AA6, size: 0x8, addend: 0x0, symName: __Z12process_fileRKNSt3__112basic_stringIcNS_11char_traitsIcEENS_9allocatorIcEEEES7_b, symObjAddr: 0x0, symBinAddr: 0x100008400, symSize: 0x1CA0 }
  - { offsetInCU: 0x22DE1, offset: 0x68396, size: 0x8, addend: 0x0, symName: __ZNSt3__16vectorINS_12basic_stringIcNS_11char_traitsIcEENS_9allocatorIcEEEENS4_IS6_EEE21__push_back_slow_pathIRKS6_EEvOT_, symObjAddr: 0x4D80, symBinAddr: 0x10000CDB0, symSize: 0x230 }
  - { offsetInCU: 0x23979, offset: 0x68F2E, size: 0x8, addend: 0x0, symName: __ZNSt3__119basic_istringstreamIcNS_11char_traitsIcEENS_9allocatorIcEEEC1B8ue170006ERKNS_12basic_stringIcS2_S4_EEj, symObjAddr: 0x1DD0, symBinAddr: 0x10000A0A0, symSize: 0x130 }
  - { offsetInCU: 0x23BB2, offset: 0x69167, size: 0x8, addend: 0x0, symName: __ZNSt3__16vectorINS_12basic_stringIcNS_11char_traitsIcEENS_9allocatorIcEEEENS4_IS6_EEE21__push_back_slow_pathIS6_EEvOT_, symObjAddr: 0x50E0, symBinAddr: 0x10000D050, symSize: 0x190 }
  - { offsetInCU: 0x24C96, offset: 0x6A24B, size: 0x8, addend: 0x0, symName: __ZNSt3__112__hash_tableINS_17__hash_value_typeINS_12basic_stringIcNS_11char_traitsIcEENS_9allocatorIcEEEENS_6vectorIfNS5_IfEEEEEENS_22__unordered_map_hasherIS7_SB_NS_4hashIS7_EENS_8equal_toIS7_EELb1EEENS_21__unordered_map_equalIS7_SB_SG_SE_Lb1EEENS5_ISB_EEE25__emplace_unique_key_argsIS7_JRKNS_21piecewise_construct_tENS_5tupleIJOS7_EEENSQ_IJEEEEEENS_4pairINS_15__hash_iteratorIPNS_11__hash_nodeISB_PvEEEEbEERKT_DpOT0_, symObjAddr: 0x5B90, symBinAddr: 0x10000D340, symSize: 0x610 }
  - { offsetInCU: 0x255BB, offset: 0x6AB70, size: 0x8, addend: 0x0, symName: __ZNKSt3__16vectorImNS_9allocatorImEEE20__throw_length_errorB8ue170006Ev, symObjAddr: 0x5290, symBinAddr: 0x10000D1E0, symSize: 0x10 }
  - { offsetInCU: 0x255C6, offset: 0x6AB7B, size: 0x8, addend: 0x0, symName: __ZNSt3__119basic_istringstreamIcNS_11char_traitsIcEENS_9allocatorIcEEED1Ev, symObjAddr: 0x2050, symBinAddr: 0x10000A1D0, symSize: 0x80 }
  - { offsetInCU: 0x25DB8, offset: 0x6B36D, size: 0x8, addend: 0x0, symName: __ZNSt3__115basic_stringbufIcNS_11char_traitsIcEENS_9allocatorIcEEE15__init_buf_ptrsB8ue170006Ev, symObjAddr: 0x52A0, symBinAddr: 0x10000D1F0, symSize: 0x150 }
  - { offsetInCU: 0x2630D, offset: 0x6B8C2, size: 0x8, addend: 0x0, symName: __Z7getTypeRKNSt3__112basic_stringIcNS_11char_traitsIcEENS_9allocatorIcEEEE, symObjAddr: 0x2630, symBinAddr: 0x10000A7B0, symSize: 0xB0 }
  - { offsetInCU: 0x264B4, offset: 0x6BA69, size: 0x8, addend: 0x0, symName: __Z21castToAppropriateTypeRKNSt3__112basic_stringIcNS_11char_traitsIcEENS_9allocatorIcEEEE, symObjAddr: 0x26E0, symBinAddr: 0x10000A860, symSize: 0xD0 }
  - { offsetInCU: 0x277B5, offset: 0x6CD6A, size: 0x8, addend: 0x0, symName: __Z16train_test_splitRNSt3__113unordered_mapINS_12basic_stringIcNS_11char_traitsIcEENS_9allocatorIcEEEENS_6vectorIfNS4_IfEEEENS_4hashIS6_EENS_8equal_toIS6_EENS4_INS_4pairIKS6_S9_EEEEEERS9_di, symObjAddr: 0x2A00, symBinAddr: 0x10000AA30, symSize: 0xE60 }
  - { offsetInCU: 0x2A90F, offset: 0x6FEC4, size: 0x8, addend: 0x0, symName: __ZNSt16invalid_argumentC1B8ue170006EPKc, symObjAddr: 0x3860, symBinAddr: 0x10000B890, symSize: 0x30 }
  - { offsetInCU: 0x2A971, offset: 0x6FF26, size: 0x8, addend: 0x0, symName: __ZNKSt3__16vectorImNS_9allocatorImEEE20__throw_length_errorB8ue170006Ev, symObjAddr: 0x5290, symBinAddr: 0x10000D1E0, symSize: 0x10 }
  - { offsetInCU: 0x2A99B, offset: 0x6FF50, size: 0x8, addend: 0x0, symName: __ZNSt3__115basic_stringbufIcNS_11char_traitsIcEENS_9allocatorIcEEE15__init_buf_ptrsB8ue170006Ev, symObjAddr: 0x52A0, symBinAddr: 0x10000D1F0, symSize: 0x150 }
  - { offsetInCU: 0x2AC30, offset: 0x701E5, size: 0x8, addend: 0x0, symName: __Z13write_datasetRKNSt3__113unordered_mapINS_12basic_stringIcNS_11char_traitsIcEENS_9allocatorIcEEEENS_6vectorIfNS4_IfEEEENS_4hashIS6_EENS_8equal_toIS6_EENS4_INS_4pairIKS6_S9_EEEEEESK_RKS9_SM_RSF_SN_, symObjAddr: 0x3890, symBinAddr: 0x10000B8C0, symSize: 0x750 }
  - { offsetInCU: 0x2C776, offset: 0x71D2B, size: 0x8, addend: 0x0, symName: __ZNSt3__112basic_stringIcNS_11char_traitsIcEENS_9allocatorIcEEE6appendB8ue170006IPKcLi0EEERS5_T_SA_, symObjAddr: 0x7200, symBinAddr: 0x10000DE00, symSize: 0x407 }
  - { offsetInCU: 0x2D446, offset: 0x729FB, size: 0x8, addend: 0x0, symName: __ZNSt3__114basic_ofstreamIcNS_11char_traitsIcEEEC1ERKNS_12basic_stringIcS2_NS_9allocatorIcEEEEj, symObjAddr: 0x3FE0, symBinAddr: 0x10000C010, symSize: 0x120 }
  - { offsetInCU: 0x2D5C3, offset: 0x72B78, size: 0x8, addend: 0x0, symName: __ZNSt3__114basic_ofstreamIcNS_11char_traitsIcEEED1Ev, symObjAddr: 0x4100, symBinAddr: 0x10000C130, symSize: 0x50 }
  - { offsetInCU: 0x2D679, offset: 0x72C2E, size: 0x8, addend: 0x0, symName: __Z13saveTreeModelRKNSt3__112basic_stringIcNS_11char_traitsIcEENS_9allocatorIcEEEEP8TreeNode, symObjAddr: 0x4150, symBinAddr: 0x10000C180, symSize: 0x230 }
  - { offsetInCU: 0x2DA53, offset: 0x73008, size: 0x8, addend: 0x0, symName: __Z12saveTreeNodeRNSt3__114basic_ofstreamIcNS_11char_traitsIcEEEEP8TreeNode, symObjAddr: 0x4380, symBinAddr: 0x10000C3B0, symSize: 0x70 }
  - { offsetInCU: 0x2DAC0, offset: 0x73075, size: 0x8, addend: 0x0, symName: __Z13loadTreeModelRKNSt3__112basic_stringIcNS_11char_traitsIcEENS_9allocatorIcEEEE, symObjAddr: 0x43F0, symBinAddr: 0x10000C420, symSize: 0x240 }
  - { offsetInCU: 0x2DE9D, offset: 0x73452, size: 0x8, addend: 0x0, symName: __Z12loadTreeNodeRNSt3__114basic_ifstreamIcNS_11char_traitsIcEEEE, symObjAddr: 0x4630, symBinAddr: 0x10000C660, symSize: 0x90 }
  - { offsetInCU: 0x2E783, offset: 0x73D38, size: 0x8, addend: 0x0, symName: __Z16saveMetricsToCSVRKNSt3__112basic_stringIcNS_11char_traitsIcEENS_9allocatorIcEEEERKNS_6vectorIS5_NS3_IS5_EEEERKNS8_IdNS3_IdEEEES7_S7_, symObjAddr: 0x46C0, symBinAddr: 0x10000C6F0, symSize: 0x6C0 }
  - { offsetInCU: 0x2FF31, offset: 0x754E6, size: 0x8, addend: 0x0, symName: __ZNKSt3__16vectorINS_12basic_stringIcNS_11char_traitsIcEENS_9allocatorIcEEEENS4_IS6_EEE20__throw_length_errorB8ue170006Ev, symObjAddr: 0x5010, symBinAddr: 0x10000D040, symSize: 0x10 }
  - { offsetInCU: 0x2FF66, offset: 0x7551B, size: 0x8, addend: 0x0, symName: __ZNSt3__114__split_bufferINS_12basic_stringIcNS_11char_traitsIcEENS_9allocatorIcEEEERNS4_IS6_EEED1Ev, symObjAddr: 0x4FB0, symBinAddr: 0x10000CFE0, symSize: 0x60 }
  - { offsetInCU: 0x31DA4, offset: 0x77359, size: 0x8, addend: 0x0, symName: __ZNSt3__125__independent_bits_engineINS_23mersenne_twister_engineIjLm32ELm624ELm397ELm31ELj2567483615ELm11ELj4294967295ELm7ELj2636928640ELm15ELj4022730752ELm18ELj1812433253EEEmE6__evalENS_17integral_constantIbLb1EEE, symObjAddr: 0x6F90, symBinAddr: 0x10000DB90, symSize: 0x270 }
  - { offsetInCU: 0x1180E, offset: 0x8929F, size: 0x8, addend: 0x0, symName: __Z9precisionRKNSt3__16vectorINS0_IiNS_9allocatorIiEEEENS1_IS3_EEEE, symObjAddr: 0x0, symBinAddr: 0x10000E210, symSize: 0x60 }
  - { offsetInCU: 0x11890, offset: 0x89321, size: 0x8, addend: 0x0, symName: __Z8accuracyRKNSt3__16vectorINS0_IiNS_9allocatorIiEEEENS1_IS3_EEEE, symObjAddr: 0x60, symBinAddr: 0x10000E270, symSize: 0x60 }
  - { offsetInCU: 0x11929, offset: 0x893BA, size: 0x8, addend: 0x0, symName: __Z6recallRKNSt3__16vectorINS0_IiNS_9allocatorIiEEEENS1_IS3_EEEE, symObjAddr: 0xC0, symBinAddr: 0x10000E2D0, symSize: 0x60 }
  - { offsetInCU: 0x119FF, offset: 0x89490, size: 0x8, addend: 0x0, symName: __Z8f1_scoreRKNSt3__16vectorINS0_IiNS_9allocatorIiEEEENS1_IS3_EEEE, symObjAddr: 0x120, symBinAddr: 0x10000E330, symSize: 0x100 }
  - { offsetInCU: 0x122E9, offset: 0x89D7A, size: 0x8, addend: 0x0, symName: __Z24compute_confusion_matrixRKNSt3__16vectorIiNS_9allocatorIiEEEES5_S5_, symObjAddr: 0x220, symBinAddr: 0x10000E430, symSize: 0x280 }
  - { offsetInCU: 0x12D1A, offset: 0x8A7AB, size: 0x8, addend: 0x0, symName: __ZNSt3__16vectorINS0_IiNS_9allocatorIiEEEENS1_IS3_EEEC2EmRKS3_, symObjAddr: 0xB00, symBinAddr: 0x10000EBC0, symSize: 0x190 }
  - { offsetInCU: 0x13407, offset: 0x8AE98, size: 0x8, addend: 0x0, symName: __ZNSt3__112__hash_tableINS_17__hash_value_typeIiiEENS_22__unordered_map_hasherIiS2_NS_4hashIiEENS_8equal_toIiEELb1EEENS_21__unordered_map_equalIiS2_S7_S5_Lb1EEENS_9allocatorIS2_EEE25__emplace_unique_key_argsIiJRKNS_21piecewise_construct_tENS_5tupleIJRKiEEENSI_IJEEEEEENS_4pairINS_15__hash_iteratorIPNS_11__hash_nodeIS2_PvEEEEbEERKT_DpOT0_, symObjAddr: 0xD20, symBinAddr: 0x10000EDE0, symSize: 0x4B0 }
  - { offsetInCU: 0x13AB5, offset: 0x8B546, size: 0x8, addend: 0x0, symName: __ZNKSt3__16vectorIiNS_9allocatorIiEEE20__throw_length_errorB8ue170006Ev, symObjAddr: 0xA20, symBinAddr: 0x10000EBB0, symSize: 0x10 }
  - { offsetInCU: 0x13AEA, offset: 0x8B57B, size: 0x8, addend: 0x0, symName: __ZNSt3__113unordered_mapIiiNS_4hashIiEENS_8equal_toIiEENS_9allocatorINS_4pairIKiiEEEEED1B8ue170006Ev, symObjAddr: 0x4A0, symBinAddr: 0x10000E6B0, symSize: 0x50 }
  - { offsetInCU: 0x14522, offset: 0x8BFB3, size: 0x8, addend: 0x0, symName: __Z24compute_confusion_matrixRKNSt3__16vectorIfNS_9allocatorIfEEEES5_S5_, symObjAddr: 0x570, symBinAddr: 0x10000E700, symSize: 0x2E0 }
  - { offsetInCU: 0x14F96, offset: 0x8CA27, size: 0x8, addend: 0x0, symName: __ZNSt3__112__hash_tableINS_17__hash_value_typeIfiEENS_22__unordered_map_hasherIfS2_NS_4hashIfEENS_8equal_toIfEELb1EEENS_21__unordered_map_equalIfS2_S7_S5_Lb1EEENS_9allocatorIS2_EEE25__emplace_unique_key_argsIfJRKNS_21piecewise_construct_tENS_5tupleIJRKfEEENSI_IJEEEEEENS_4pairINS_15__hash_iteratorIPNS_11__hash_nodeIS2_PvEEEEbEERKT_DpOT0_, symObjAddr: 0x13E0, symBinAddr: 0x10000F4A0, symSize: 0x480 }
  - { offsetInCU: 0x15684, offset: 0x8D115, size: 0x8, addend: 0x0, symName: __ZNSt3__113unordered_mapIfiNS_4hashIfEENS_8equal_toIfEENS_9allocatorINS_4pairIKfiEEEEED1B8ue170006Ev, symObjAddr: 0x850, symBinAddr: 0x10000E9E0, symSize: 0x50 }
  - { offsetInCU: 0x15D36, offset: 0x8D7C7, size: 0x8, addend: 0x0, symName: __Z14count_elementsRKNSt3__16vectorIfNS_9allocatorIfEEEE, symObjAddr: 0x8A0, symBinAddr: 0x10000EA30, symSize: 0x110 }
  - { offsetInCU: 0x16314, offset: 0x8DDA5, size: 0x8, addend: 0x0, symName: __ZNSt3__112__hash_tableINS_17__hash_value_typeINS_12basic_stringIcNS_11char_traitsIcEENS_9allocatorIcEEEEiEENS_22__unordered_map_hasherIS7_S8_NS_4hashIS7_EENS_8equal_toIS7_EELb1EEENS_21__unordered_map_equalIS7_S8_SD_SB_Lb1EEENS5_IS8_EEE4findIS7_EENS_15__hash_iteratorIPNS_11__hash_nodeIS8_PvEEEERKT_, symObjAddr: 0x1A70, symBinAddr: 0x10000FB30, symSize: 0x2F0 }
  - { offsetInCU: 0x165DA, offset: 0x8E06B, size: 0x8, addend: 0x0, symName: __ZNSt3__112__hash_tableINS_17__hash_value_typeINS_12basic_stringIcNS_11char_traitsIcEENS_9allocatorIcEEEEiEENS_22__unordered_map_hasherIS7_S8_NS_4hashIS7_EENS_8equal_toIS7_EELb1EEENS_21__unordered_map_equalIS7_S8_SD_SB_Lb1EEENS5_IS8_EEE25__emplace_unique_key_argsIS7_JRKNS_21piecewise_construct_tENS_5tupleIJRKS7_EEENSN_IJEEEEEENS_4pairINS_15__hash_iteratorIPNS_11__hash_nodeIS8_PvEEEEbEERKT_DpOT0_, symObjAddr: 0x2210, symBinAddr: 0x10000FE20, symSize: 0x6A0 }
  - { offsetInCU: 0x171AD, offset: 0x8EC3E, size: 0x8, addend: 0x0, symName: __ZNSt3__113unordered_mapINS_12basic_stringIcNS_11char_traitsIcEENS_9allocatorIcEEEEiNS_4hashIS6_EENS_8equal_toIS6_EENS4_INS_4pairIKS6_iEEEEED1B8ue170006Ev, symObjAddr: 0x9B0, symBinAddr: 0x10000EB40, symSize: 0x70 }
  - { offsetInCU: 0x17C18, offset: 0x8F6A9, size: 0x8, addend: 0x0, symName: __ZNKSt3__16vectorINS0_IiNS_9allocatorIiEEEENS1_IS3_EEE20__throw_length_errorB8ue170006Ev, symObjAddr: 0xD10, symBinAddr: 0x10000EDD0, symSize: 0x10 }
  - { offsetInCU: 0x17C42, offset: 0x8F6D3, size: 0x8, addend: 0x0, symName: __ZNSt3__112__hash_tableINS_17__hash_value_typeIiiEENS_22__unordered_map_hasherIiS2_NS_4hashIiEENS_8equal_toIiEELb1EEENS_21__unordered_map_equalIiS2_S7_S5_Lb1EEENS_9allocatorIS2_EEE25__emplace_unique_key_argsIiJRKNS_21piecewise_construct_tENS_5tupleIJRKiEEENSI_IJEEEEEENS_4pairINS_15__hash_iteratorIPNS_11__hash_nodeIS2_PvEEEEbEERKT_DpOT0_, symObjAddr: 0xD20, symBinAddr: 0x10000EDE0, symSize: 0x4B0 }
  - { offsetInCU: 0x17C4D, offset: 0x8F6DE, size: 0x8, addend: 0x0, symName: __ZNSt3__128__exception_guard_exceptionsINS_6vectorINS1_IiNS_9allocatorIiEEEENS2_IS4_EEE16__destroy_vectorEED1B8ue170006Ev, symObjAddr: 0xC90, symBinAddr: 0x10000ED50, symSize: 0x80 }
  - { offsetInCU: 0x183D5, offset: 0x8FE66, size: 0x8, addend: 0x0, symName: __ZNSt3__112__hash_tableINS_17__hash_value_typeIiiEENS_22__unordered_map_hasherIiS2_NS_4hashIiEENS_8equal_toIiEELb1EEENS_21__unordered_map_equalIiS2_S7_S5_Lb1EEENS_9allocatorIS2_EEE11__do_rehashILb1EEEvm, symObjAddr: 0x11D0, symBinAddr: 0x10000F290, symSize: 0x210 }
  - { offsetInCU: 0x18D38, offset: 0x907C9, size: 0x8, addend: 0x0, symName: __ZNSt3__112__hash_tableINS_17__hash_value_typeIfiEENS_22__unordered_map_hasherIfS2_NS_4hashIfEENS_8equal_toIfEELb1EEENS_21__unordered_map_equalIfS2_S7_S5_Lb1EEENS_9allocatorIS2_EEE11__do_rehashILb1EEEvm, symObjAddr: 0x1860, symBinAddr: 0x10000F920, symSize: 0x210 }
  - { offsetInCU: 0x1A371, offset: 0x91E02, size: 0x8, addend: 0x0, symName: __ZNSt3__112__hash_tableINS_17__hash_value_typeINS_12basic_stringIcNS_11char_traitsIcEENS_9allocatorIcEEEEiEENS_22__unordered_map_hasherIS7_S8_NS_4hashIS7_EENS_8equal_toIS7_EELb1EEENS_21__unordered_map_equalIS7_S8_SD_SB_Lb1EEENS5_IS8_EEE11__do_rehashILb1EEEvm, symObjAddr: 0x2900, symBinAddr: 0x100010500, symSize: 0x20B }
  - { offsetInCU: 0x1A802, offset: 0x92293, size: 0x8, addend: 0x0, symName: __ZNSt3__112__hash_tableINS_17__hash_value_typeINS_12basic_stringIcNS_11char_traitsIcEENS_9allocatorIcEEEEiEENS_22__unordered_map_hasherIS7_S8_NS_4hashIS7_EENS_8equal_toIS7_EELb1EEENS_21__unordered_map_equalIS7_S8_SD_SB_Lb1EEENS5_IS8_EEE11__do_rehashILb1EEEvm, symObjAddr: 0x2900, symBinAddr: 0x100010500, symSize: 0x20B }
  - { offsetInCU: 0x1A80D, offset: 0x9229E, size: 0x8, addend: 0x0, symName: __ZNSt3__110unique_ptrINS_11__hash_nodeINS_17__hash_value_typeINS_12basic_stringIcNS_11char_traitsIcEENS_9allocatorIcEEEEiEEPvEENS_22__hash_node_destructorINS6_ISB_EEEEED1B8ue170006Ev, symObjAddr: 0x28B0, symBinAddr: 0x1000104C0, symSize: 0x40 }
  - { offsetInCU: 0x3F, offset: 0x926ED, size: 0x8, addend: 0x0, symName: _data_, symObjAddr: 0x3232C8, symBinAddr: 0x100031008, symSize: 0x0 }
  - { offsetInCU: 0x19A43, offset: 0xAC0F1, size: 0x8, addend: 0x0, symName: '__ZNSt3__111__introsortINS_17_ClassicAlgPolicyERZ14get_best_splitRKNS_12basic_stringIcNS_11char_traitsIcEENS_9allocatorIcEEEERKNS_13unordered_mapIS7_NS_6vectorIfNS5_IfEEEENS_4hashIS7_EENS_8equal_toIS7_EENS5_INS_4pairIS8_SD_EEEEEEE3$_0PNSI_IS7_fEELb0EEEvT1_SS_T0_NS_15iterator_traitsISS_E15difference_typeEb', symObjAddr: 0x9360, symBinAddr: 0x100019780, symSize: 0x13A0 }
  - { offsetInCU: 0x1C739, offset: 0xAEDE7, size: 0x8, addend: 0x0, symName: '__ZNSt3__127__insertion_sort_incompleteB8ue170006INS_17_ClassicAlgPolicyERZ14get_best_splitRKNS_12basic_stringIcNS_11char_traitsIcEENS_9allocatorIcEEEERKNS_13unordered_mapIS7_NS_6vectorIfNS5_IfEEEENS_4hashIS7_EENS_8equal_toIS7_EENS5_INS_4pairIS8_SD_EEEEEEE3$_0PNSI_IS7_fEEEEbT1_SS_T0_', symObjAddr: 0xAB20, symBinAddr: 0x10001AF40, symSize: 0x370 }
  - { offsetInCU: 0x35DC2, offset: 0xC8470, size: 0x8, addend: 0x0, symName: __ZNSt3__125__throw_bad_function_callB8ue170006Ev, symObjAddr: 0x11230, symBinAddr: 0x100021560, symSize: 0x40 }
  - { offsetInCU: 0x38B99, offset: 0xCB247, size: 0x8, addend: 0x0, symName: __ZNSt3__120__throw_out_of_rangeB8ue170006EPKc, symObjAddr: 0x117E0, symBinAddr: 0x100021970, symSize: 0x50 }
  - { offsetInCU: 0x3C807, offset: 0xCEEB5, size: 0x8, addend: 0x0, symName: __ZNSt3__114__thread_proxyB8ue170006INS_5tupleIJNS_10unique_ptrINS_15__thread_structENS_14default_deleteIS3_EEEEPFvR11SharedData0iENS_17reference_wrapperIS7_EEiEEEEEPvSE_, symObjAddr: 0x7750, symBinAddr: 0x100017BA0, symSize: 0x80 }
  - { offsetInCU: 0x3D065, offset: 0xCF713, size: 0x8, addend: 0x0, symName: __ZNSt3__114__thread_proxyB8ue170006INS_5tupleIJNS_10unique_ptrINS_15__thread_structENS_14default_deleteIS3_EEEEPFvR10SharedDataiENS_17reference_wrapperIS7_EEiEEEEEPvSE_, symObjAddr: 0x7C40, symBinAddr: 0x100018090, symSize: 0x80 }
  - { offsetInCU: 0x3E24C, offset: 0xD08FA, size: 0x8, addend: 0x0, symName: __ZNSt3__114__thread_proxyB8ue170006INS_5tupleIJNS_10unique_ptrINS_15__thread_structENS_14default_deleteIS3_EEEEPFvR11SharedData2iENS_17reference_wrapperIS7_EEiEEEEEPvSE_, symObjAddr: 0x8680, symBinAddr: 0x100018AD0, symSize: 0x80 }
  - { offsetInCU: 0x3EBA7, offset: 0xD1255, size: 0x8, addend: 0x0, symName: __ZNSt3__135__uninitialized_allocator_copy_implB8ue170006INS_9allocatorINS_6vectorIiNS1_IiEEEEEEPS4_S6_S6_EET2_RT_T0_T1_S7_, symObjAddr: 0x8C40, symBinAddr: 0x100019070, symSize: 0x100 }
  - { offsetInCU: 0x402ED, offset: 0xD299B, size: 0x8, addend: 0x0, symName: '__ZNSt3__17__sort3B8ue170006INS_17_ClassicAlgPolicyERZ14get_best_splitRKNS_12basic_stringIcNS_11char_traitsIcEENS_9allocatorIcEEEERKNS_13unordered_mapIS7_NS_6vectorIfNS5_IfEEEENS_4hashIS7_EENS_8equal_toIS7_EENS5_INS_4pairIS8_SD_EEEEEEE3$_0PNSI_IS7_fEEEEjT1_SS_SS_T0_', symObjAddr: 0xA920, symBinAddr: 0x10001AD40, symSize: 0x200 }
  - { offsetInCU: 0x40AC0, offset: 0xD316E, size: 0x8, addend: 0x0, symName: '__ZNSt3__124__sort5_maybe_branchlessB8ue170006INS_17_ClassicAlgPolicyERZ14get_best_splitRKNS_12basic_stringIcNS_11char_traitsIcEENS_9allocatorIcEEEERKNS_13unordered_mapIS7_NS_6vectorIfNS5_IfEEEENS_4hashIS7_EENS_8equal_toIS7_EENS5_INS_4pairIS8_SD_EEEEEEE3$_0PNSI_IS7_fEEEENS_9enable_ifIXntsr21__use_branchless_sortIT0_T1_EE5valueEvE4typeESU_SU_SU_SU_SU_ST_', symObjAddr: 0xA700, symBinAddr: 0x10001AB20, symSize: 0x220 }
  - { offsetInCU: 0x4122B, offset: 0xD38D9, size: 0x8, addend: 0x0, symName: '__ZNSt3__17__sort4B8ue170006INS_17_ClassicAlgPolicyERZ14get_best_splitRKNS_12basic_stringIcNS_11char_traitsIcEENS_9allocatorIcEEEERKNS_13unordered_mapIS7_NS_6vectorIfNS5_IfEEEENS_4hashIS7_EENS_8equal_toIS7_EENS5_INS_4pairIS8_SD_EEEEEEE3$_0PNSI_IS7_fEEEEvT1_SS_SS_SS_T0_', symObjAddr: 0xAE90, symBinAddr: 0x10001B2B0, symSize: 0x190 }
  - { offsetInCU: 0x4197C, offset: 0xD402A, size: 0x8, addend: 0x0, symName: __ZNSt3__18distanceB8ue170006INS_20regex_token_iteratorINS_11__wrap_iterIPKcEEcNS_12regex_traitsIcEEEEEENS_15iterator_traitsIT_E15difference_typeESA_SA_, symObjAddr: 0xB940, symBinAddr: 0x10001BD50, symSize: 0x110 }
  - { offsetInCU: 0x42F76, offset: 0xD5624, size: 0x8, addend: 0x0, symName: __ZNSt3__119__throw_regex_errorB8ue170006ILNS_15regex_constants10error_typeE12EEEvv, symObjAddr: 0xE440, symBinAddr: 0x10001E850, symSize: 0x50 }
  - { offsetInCU: 0x42F9C, offset: 0xD564A, size: 0x8, addend: 0x0, symName: __ZNSt3__119__throw_regex_errorB8ue170006ILNS_15regex_constants10error_typeE16EEEvv, symObjAddr: 0xE490, symBinAddr: 0x10001E8A0, symSize: 0x50 }
  - { offsetInCU: 0x44E61, offset: 0xD750F, size: 0x8, addend: 0x0, symName: __ZNSt3__130__uninitialized_allocator_copyB8ue170006INS_9allocatorINS_12basic_stringIcNS_11char_traitsIcEENS1_IcEEEEEENS_20regex_token_iteratorINS_11__wrap_iterIPKcEEcNS_12regex_traitsIcEEEESF_PS6_EET2_RT_T0_T1_SH_, symObjAddr: 0x10810, symBinAddr: 0x100020C10, symSize: 0x220 }
  - { offsetInCU: 0x46427, offset: 0xD8AD5, size: 0x8, addend: 0x0, symName: __ZNSt3__114__unwrap_rangeB8ue170006INS_20regex_token_iteratorINS_11__wrap_iterIPKcEEcNS_12regex_traitsIcEEEES8_EEDaT_T0_, symObjAddr: 0x10A30, symBinAddr: 0x100020E30, symSize: 0xE0 }
  - { offsetInCU: 0x46B5B, offset: 0xD9209, size: 0x8, addend: 0x0, symName: __ZNSt3__135__uninitialized_allocator_copy_implB8ue170006INS_9allocatorINS_12basic_stringIcNS_11char_traitsIcEENS1_IcEEEEEENS_20regex_token_iteratorINS_11__wrap_iterIPKcEEcNS_12regex_traitsIcEEEESF_PS6_EET2_RT_T0_T1_SH_, symObjAddr: 0x10B10, symBinAddr: 0x100020F10, symSize: 0x2C0 }
  - { offsetInCU: 0x4798A, offset: 0xDA038, size: 0x8, addend: 0x0, symName: __ZNSt3__119__throw_regex_errorB8ue170006ILNS_15regex_constants10error_typeE17EEEvv, symObjAddr: 0x14720, symBinAddr: 0x100022EE0, symSize: 0x50 }
  - { offsetInCU: 0x486D2, offset: 0xDAD80, size: 0x8, addend: 0x0, symName: __ZNSt3__119__throw_regex_errorB8ue170006ILNS_15regex_constants10error_typeE14EEEvv, symObjAddr: 0x15080, symBinAddr: 0x100023840, symSize: 0x50 }
  - { offsetInCU: 0x489AC, offset: 0xDB05A, size: 0x8, addend: 0x0, symName: __ZNSt3__119__throw_regex_errorB8ue170006ILNS_15regex_constants10error_typeE15EEEvv, symObjAddr: 0x1CBF0, symBinAddr: 0x10002B120, symSize: 0x50 }
  - { offsetInCU: 0x48C14, offset: 0xDB2C2, size: 0x8, addend: 0x0, symName: __ZNSt3__119__throw_regex_errorB8ue170006ILNS_15regex_constants10error_typeE6EEEvv, symObjAddr: 0x15CE0, symBinAddr: 0x1000244A0, symSize: 0x50 }
  - { offsetInCU: 0x48DBA, offset: 0xDB468, size: 0x8, addend: 0x0, symName: __ZNSt3__119__throw_regex_errorB8ue170006ILNS_15regex_constants10error_typeE11EEEvv, symObjAddr: 0x16580, symBinAddr: 0x100024D40, symSize: 0x50 }
  - { offsetInCU: 0x48DFE, offset: 0xDB4AC, size: 0x8, addend: 0x0, symName: __ZNSt3__119__throw_regex_errorB8ue170006ILNS_15regex_constants10error_typeE8EEEvv, symObjAddr: 0x1C600, symBinAddr: 0x10002AB30, symSize: 0x50 }
  - { offsetInCU: 0x48E24, offset: 0xDB4D2, size: 0x8, addend: 0x0, symName: __ZNSt3__119__throw_regex_errorB8ue170006ILNS_15regex_constants10error_typeE7EEEvv, symObjAddr: 0x1C650, symBinAddr: 0x10002AB80, symSize: 0x50 }
  - { offsetInCU: 0x48F52, offset: 0xDB600, size: 0x8, addend: 0x0, symName: __ZNSt3__119__throw_regex_errorB8ue170006ILNS_15regex_constants10error_typeE4EEEvv, symObjAddr: 0x17170, symBinAddr: 0x100025930, symSize: 0x50 }
  - { offsetInCU: 0x48F78, offset: 0xDB626, size: 0x8, addend: 0x0, symName: __ZNSt3__119__throw_regex_errorB8ue170006ILNS_15regex_constants10error_typeE3EEEvv, symObjAddr: 0x167F0, symBinAddr: 0x100024FB0, symSize: 0x50 }
  - { offsetInCU: 0x48F9E, offset: 0xDB64C, size: 0x8, addend: 0x0, symName: __ZNSt3__119__throw_regex_errorB8ue170006ILNS_15regex_constants10error_typeE5EEEvv, symObjAddr: 0x19660, symBinAddr: 0x100027E20, symSize: 0x50 }
  - { offsetInCU: 0x49EE4, offset: 0xDC592, size: 0x8, addend: 0x0, symName: __ZNSt3__119__throw_regex_errorB8ue170006ILNS_15regex_constants10error_typeE1EEEvv, symObjAddr: 0x1AF60, symBinAddr: 0x100029720, symSize: 0x50 }
  - { offsetInCU: 0x49F0A, offset: 0xDC5B8, size: 0x8, addend: 0x0, symName: __ZNSt3__119__throw_regex_errorB8ue170006ILNS_15regex_constants10error_typeE2EEEvv, symObjAddr: 0x1B5D0, symBinAddr: 0x100029B00, symSize: 0x50 }
  - { offsetInCU: 0x49FAF, offset: 0xDC65D, size: 0x8, addend: 0x0, symName: __ZNSt3__119__throw_regex_errorB8ue170006ILNS_15regex_constants10error_typeE9EEEvv, symObjAddr: 0x1C110, symBinAddr: 0x10002A640, symSize: 0x50 }
  - { offsetInCU: 0x4BC7D, offset: 0xDE32B, size: 0x8, addend: 0x0, symName: _masks_, symObjAddr: 0x3232F0, symBinAddr: 0x100031030, symSize: 0x0 }
  - { offsetInCU: 0x4C274, offset: 0xDE922, size: 0x8, addend: 0x0, symName: _num_threads_, symObjAddr: 0x1F8CC, symBinAddr: 0x100031000, symSize: 0x0 }
  - { offsetInCU: 0x4C28A, offset: 0xDE938, size: 0x8, addend: 0x0, symName: _y_, symObjAddr: 0x323318, symBinAddr: 0x100031058, symSize: 0x0 }
  - { offsetInCU: 0x52709, offset: 0xE4DB7, size: 0x8, addend: 0x0, symName: __ZNSt3__113unordered_mapINS_12basic_stringIcNS_11char_traitsIcEENS_9allocatorIcEEEENS_5tupleIJffbbEEENS_4hashIS6_EENS_8equal_toIS6_EENS4_INS_4pairIKS6_S8_EEEEED1B8ue170006Ev, symObjAddr: 0x80, symBinAddr: 0x100010710, symSize: 0x70 }
  - { offsetInCU: 0x53100, offset: 0xE57AE, size: 0x8, addend: 0x0, symName: __Z13gini_impurityRKNSt3__16vectorIfNS_9allocatorIfEEEE, symObjAddr: 0xF0, symBinAddr: 0x100010780, symSize: 0x1F0 }
  - { offsetInCU: 0x53EBE, offset: 0xE656C, size: 0x8, addend: 0x0, symName: __Z7entropyRKNSt3__16vectorIfNS_9allocatorIfEEEE, symObjAddr: 0x350, symBinAddr: 0x100010970, symSize: 0x180 }
  - { offsetInCU: 0x54572, offset: 0xE6C20, size: 0x8, addend: 0x0, symName: __Z8varianceRKNSt3__16vectorIfNS_9allocatorIfEEEE, symObjAddr: 0x4D0, symBinAddr: 0x100010AF0, symSize: 0xB0 }
  - { offsetInCU: 0x54883, offset: 0xE6F31, size: 0x8, addend: 0x0, symName: __Z14process_threadR11SharedData0i, symObjAddr: 0x580, symBinAddr: 0x100010BA0, symSize: 0xB0 }
  - { offsetInCU: 0x5512A, offset: 0xE77D8, size: 0x8, addend: 0x0, symName: __Z15getMaskParallelRKNSt3__16vectorIfNS_9allocatorIfEEEERKf, symObjAddr: 0x630, symBinAddr: 0x100010C50, symSize: 0x330 }
  - { offsetInCU: 0x55AFF, offset: 0xE81AD, size: 0x8, addend: 0x0, symName: __ZNSt3__16vectorINS_6threadENS_9allocatorIS1_EEE24__emplace_back_slow_pathIJRFvR11SharedData0iENS_17reference_wrapperIS6_EERiEEEvDpOT_, symObjAddr: 0x73D0, symBinAddr: 0x100017820, symSize: 0x2B0 }
  - { offsetInCU: 0x561B9, offset: 0xE8867, size: 0x8, addend: 0x0, symName: __ZNSt3__16threadC2IRFvR11SharedData0iEJNS_17reference_wrapperIS2_EERiEvEEOT_DpOT0_, symObjAddr: 0x7680, symBinAddr: 0x100017AD0, symSize: 0xD0 }
  - { offsetInCU: 0x56671, offset: 0xE8D1F, size: 0x8, addend: 0x0, symName: __ZNKSt3__16vectorIbNS_9allocatorIbEEE20__throw_length_errorB8ue170006Ev, symObjAddr: 0x73C0, symBinAddr: 0x100017810, symSize: 0x10 }
  - { offsetInCU: 0x5669B, offset: 0xE8D49, size: 0x8, addend: 0x0, symName: __ZNSt3__16vectorINS_6threadENS_9allocatorIS1_EEE24__emplace_back_slow_pathIJRFvR11SharedData0iENS_17reference_wrapperIS6_EERiEEEvDpOT_, symObjAddr: 0x73D0, symBinAddr: 0x100017820, symSize: 0x2B0 }
  - { offsetInCU: 0x566A6, offset: 0xE8D54, size: 0x8, addend: 0x0, symName: __ZNSt3__16vectorINS_6threadENS_9allocatorIS1_EEED1B8ue170006Ev, symObjAddr: 0x960, symBinAddr: 0x100010F80, symSize: 0x70 }
  - { offsetInCU: 0x5690D, offset: 0xE8FBB, size: 0x8, addend: 0x0, symName: __Z20process_thread_countR10SharedDatai, symObjAddr: 0x9D0, symBinAddr: 0x100010FF0, symSize: 0x80 }
  - { offsetInCU: 0x56D2C, offset: 0xE93DA, size: 0x8, addend: 0x0, symName: __Z19count_true_parallelRKNSt3__16vectorIbNS_9allocatorIbEEEEi, symObjAddr: 0xA50, symBinAddr: 0x100011070, symSize: 0x230 }
  - { offsetInCU: 0x573FF, offset: 0xE9AAD, size: 0x8, addend: 0x0, symName: __ZNSt3__16vectorINS_6threadENS_9allocatorIS1_EEE24__emplace_back_slow_pathIJRFvR10SharedDataiENS_17reference_wrapperIS6_EERiEEEvDpOT_, symObjAddr: 0x78C0, symBinAddr: 0x100017D10, symSize: 0x2B0 }
  - { offsetInCU: 0x57AB9, offset: 0xEA167, size: 0x8, addend: 0x0, symName: __ZNSt3__16threadC2IRFvR10SharedDataiEJNS_17reference_wrapperIS2_EERiEvEEOT_DpOT0_, symObjAddr: 0x7B70, symBinAddr: 0x100017FC0, symSize: 0xD0 }
  - { offsetInCU: 0x581B0, offset: 0xEA85E, size: 0x8, addend: 0x0, symName: __Z23process_thread_separateR11SharedData2i, symObjAddr: 0xC80, symBinAddr: 0x1000112A0, symSize: 0x390 }
  - { offsetInCU: 0x58F5C, offset: 0xEB60A, size: 0x8, addend: 0x0, symName: __ZNSt3__16vectorIbNS_9allocatorIbEEE7reserveEm, symObjAddr: 0x1010, symBinAddr: 0x100011630, symSize: 0x140 }
  - { offsetInCU: 0x59358, offset: 0xEBA06, size: 0x8, addend: 0x0, symName: __ZNSt3__16vectorIfNS_9allocatorIfEEE18__insert_with_sizeB8ue170006INS_13move_iteratorINS_14__bit_iteratorINS0_IbNS1_IbEEEELb0ELm0EEEEESA_EENS_11__wrap_iterIPfEENSB_IPKfEET_T0_l, symObjAddr: 0x7D10, symBinAddr: 0x100018160, symSize: 0x5F0 }
  - { offsetInCU: 0x5A4D2, offset: 0xECB80, size: 0x8, addend: 0x0, symName: __Z22separate_data_parallelRKNSt3__16vectorIfNS_9allocatorIfEEEERKNS0_IbNS1_IbEEEERS3_SA_, symObjAddr: 0x1150, symBinAddr: 0x100011770, symSize: 0x230 }
  - { offsetInCU: 0x5AB81, offset: 0xED22F, size: 0x8, addend: 0x0, symName: __ZNSt3__16vectorINS_6threadENS_9allocatorIS1_EEE24__emplace_back_slow_pathIJRFvR11SharedData2iENS_17reference_wrapperIS6_EERiEEEvDpOT_, symObjAddr: 0x8300, symBinAddr: 0x100018750, symSize: 0x2B0 }
  - { offsetInCU: 0x5B23B, offset: 0xED8E9, size: 0x8, addend: 0x0, symName: __ZNSt3__16threadC2IRFvR11SharedData2iEJNS_17reference_wrapperIS2_EERiEvEEOT_DpOT0_, symObjAddr: 0x85B0, symBinAddr: 0x100018A00, symSize: 0xD0 }
  - { offsetInCU: 0x5B7D3, offset: 0xEDE81, size: 0x8, addend: 0x0, symName: __Z25information_gain_parallelRKNSt3__16vectorIfNS_9allocatorIfEEEERKNS0_IbNS1_IbEEEENS_8functionIFfS5_EEE, symObjAddr: 0x1380, symBinAddr: 0x1000119A0, symSize: 0x200 }
  - { offsetInCU: 0x5BFC9, offset: 0xEE677, size: 0x8, addend: 0x0, symName: __Z7getMaskRKNSt3__16vectorIfNS_9allocatorIfEEEERKf, symObjAddr: 0x1580, symBinAddr: 0x100011BA0, symSize: 0x140 }
  - { offsetInCU: 0x5C66F, offset: 0xEED1D, size: 0x8, addend: 0x0, symName: __Z16information_gainRKNSt3__16vectorIfNS_9allocatorIfEEEERKNS0_IbNS1_IbEEEENS_8functionIFfS5_EEE, symObjAddr: 0x16C0, symBinAddr: 0x100011CE0, symSize: 0x920 }
  - { offsetInCU: 0x5E17A, offset: 0xF0828, size: 0x8, addend: 0x0, symName: __Z21generate_combinationsRKNSt3__16vectorIiNS_9allocatorIiEEEEiRS3_RNS0_IS3_NS1_IS3_EEEE, symObjAddr: 0x1FE0, symBinAddr: 0x100012600, symSize: 0x310 }
  - { offsetInCU: 0x5EDA0, offset: 0xF144E, size: 0x8, addend: 0x0, symName: __ZNSt3__16vectorINS0_IiNS_9allocatorIiEEEENS1_IS3_EEE21__push_back_slow_pathIRKS3_EEvOT_, symObjAddr: 0x8750, symBinAddr: 0x100018BA0, symSize: 0x270 }
  - { offsetInCU: 0x5F9CB, offset: 0xF2079, size: 0x8, addend: 0x0, symName: __ZNSt3__114__split_bufferINS_6vectorIiNS_9allocatorIiEEEERNS2_IS4_EEED1Ev, symObjAddr: 0x89D0, symBinAddr: 0x100018E10, symSize: 0x60 }
  - { offsetInCU: 0x5FFC1, offset: 0xF266F, size: 0x8, addend: 0x0, symName: __Z19categorical_optionsRKNSt3__16vectorIiNS_9allocatorIiEEEE, symObjAddr: 0x22F0, symBinAddr: 0x100012910, symSize: 0x170 }
  - { offsetInCU: 0x60D2C, offset: 0xF33DA, size: 0x8, addend: 0x0, symName: __ZNSt3__13setIiNS_4lessIiEENS_9allocatorIiEEE6insertB8ue170006INS_11__wrap_iterIPKiEEEEvT_SB_, symObjAddr: 0x112A0, symBinAddr: 0x1000215D0, symSize: 0x140 }
  - { offsetInCU: 0x610D4, offset: 0xF3782, size: 0x8, addend: 0x0, symName: __ZNSt3__16vectorIiNS_9allocatorIiEEEC2INS_21__tree_const_iteratorIiPNS_11__tree_nodeIiPvEElEELi0EEET_SB_, symObjAddr: 0x8A40, symBinAddr: 0x100018E70, symSize: 0x130 }
  - { offsetInCU: 0x6162E, offset: 0xF3CDC, size: 0x8, addend: 0x0, symName: __ZNSt3__16vectorINS0_IiNS_9allocatorIiEEEENS1_IS3_EEEC2INS_11__wrap_iterIPS3_EELi0EEET_SA_, symObjAddr: 0x8B70, symBinAddr: 0x100018FA0, symSize: 0xD0 }
  - { offsetInCU: 0x6190A, offset: 0xF3FB8, size: 0x8, addend: 0x0, symName: __ZNSt3__16__treeIiNS_4lessIiEENS_9allocatorIiEEE7destroyEPNS_11__tree_nodeIiPvEE, symObjAddr: 0x11540, symBinAddr: 0x100021710, symSize: 0x40 }
  - { offsetInCU: 0x62AC7, offset: 0xF5175, size: 0x8, addend: 0x0, symName: __Z26max_information_gain_splitRKNSt3__16vectorIfNS_9allocatorIfEEEES5_NS_8functionIFfS5_EEE, symObjAddr: 0x24E0, symBinAddr: 0x100012A80, symSize: 0xAB0 }
  - { offsetInCU: 0x64C1C, offset: 0xF72CA, size: 0x8, addend: 0x0, symName: __ZNSt3__13setIfNS_4lessIfEENS_9allocatorIfEEE6insertB8ue170006INS_11__wrap_iterIPKfEEEEvT_SB_, symObjAddr: 0x11580, symBinAddr: 0x100021750, symSize: 0x150 }
  - { offsetInCU: 0x64FEA, offset: 0xF7698, size: 0x8, addend: 0x0, symName: __ZNSt3__16vectorIfNS_9allocatorIfEEE18__assign_with_sizeB8ue170006INS_21__tree_const_iteratorIfPNS_11__tree_nodeIfPvEElEESA_EEvT_T0_l, symObjAddr: 0x8D90, symBinAddr: 0x1000191C0, symSize: 0x2F0 }
  - { offsetInCU: 0x65B18, offset: 0xF81C6, size: 0x8, addend: 0x0, symName: __ZNKSt3__16vectorIdNS_9allocatorIdEEE20__throw_length_errorB8ue170006Ev, symObjAddr: 0x9080, symBinAddr: 0x1000194B0, symSize: 0x10 }
  - { offsetInCU: 0x65B6B, offset: 0xF8219, size: 0x8, addend: 0x0, symName: __Z16customComparatorff, symObjAddr: 0x2F90, symBinAddr: 0x100013530, symSize: 0x40 }
  - { offsetInCU: 0x661D7, offset: 0xF8885, size: 0x8, addend: 0x0, symName: __Z15iterate_search_i, symObjAddr: 0x2FD0, symBinAddr: 0x100013570, symSize: 0x450 }
  - { offsetInCU: 0x67650, offset: 0xF9CFE, size: 0x8, addend: 0x0, symName: __ZNSt3__112__hash_tableINS_17__hash_value_typeINS_12basic_stringIcNS_11char_traitsIcEENS_9allocatorIcEEEENS_5tupleIJffbbEEEEENS_22__unordered_map_hasherIS7_SA_NS_4hashIS7_EENS_8equal_toIS7_EELb1EEENS_21__unordered_map_equalIS7_SA_SF_SD_Lb1EEENS5_ISA_EEE25__emplace_unique_key_argsIS7_JRKNS_21piecewise_construct_tENS8_IJRKS7_EEENS8_IJEEEEEENS_4pairINS_15__hash_iteratorIPNS_11__hash_nodeISA_PvEEEEbEERKT_DpOT0_, symObjAddr: 0x12000, symBinAddr: 0x1000219F0, symSize: 0x6A0 }
  - { offsetInCU: 0x682D8, offset: 0xFA986, size: 0x8, addend: 0x0, symName: __ZNSt3__16vectorINS_4pairINS_12basic_stringIcNS_11char_traitsIcEENS_9allocatorIcEEEEfEENS5_IS8_EEE24__emplace_back_slow_pathIJRKS7_RKfEEEvDpOT_, symObjAddr: 0x90A0, symBinAddr: 0x1000194C0, symSize: 0x250 }
  - { offsetInCU: 0x68A95, offset: 0xFB143, size: 0x8, addend: 0x0, symName: __Z14get_best_splitRKNSt3__112basic_stringIcNS_11char_traitsIcEENS_9allocatorIcEEEERKNS_13unordered_mapIS5_NS_6vectorIfNS3_IfEEEENS_4hashIS5_EENS_8equal_toIS5_EENS3_INS_4pairIS6_SB_EEEEEE, symObjAddr: 0x3420, symBinAddr: 0x1000139C0, symSize: 0x6B0 }
  - { offsetInCU: 0x6B3D1, offset: 0xFDA7F, size: 0x8, addend: 0x0, symName: __ZNKSt3__112__hash_tableINS_17__hash_value_typeINS_12basic_stringIcNS_11char_traitsIcEENS_9allocatorIcEEEENS_6vectorIfNS5_IfEEEEEENS_22__unordered_map_hasherIS7_SB_NS_4hashIS7_EENS_8equal_toIS7_EELb1EEENS_21__unordered_map_equalIS7_SB_SG_SE_Lb1EEENS5_ISB_EEE4findIS7_EENS_21__hash_const_iteratorIPNS_11__hash_nodeISB_PvEEEERKT_, symObjAddr: 0x128F0, symBinAddr: 0x1000222E0, symSize: 0x2F0 }
  - { offsetInCU: 0x6B697, offset: 0xFDD45, size: 0x8, addend: 0x0, symName: __ZNSt3__16vectorINS_4pairINS_12basic_stringIcNS_11char_traitsIcEENS_9allocatorIcEEEEfEENS5_IS8_EEE24__emplace_back_slow_pathIJRKS7_RKfEEEvDpOT_, symObjAddr: 0x90A0, symBinAddr: 0x1000194C0, symSize: 0x250 }
  - { offsetInCU: 0x6C302, offset: 0xFE9B0, size: 0x8, addend: 0x0, symName: __ZNSt3__16vectorINS_4pairINS_12basic_stringIcNS_11char_traitsIcEENS_9allocatorIcEEEEfEENS5_IS8_EEED1B8ue170006Ev, symObjAddr: 0x3AD0, symBinAddr: 0x100014070, symSize: 0x70 }
  - { offsetInCU: 0x6CC93, offset: 0xFF341, size: 0x8, addend: 0x0, symName: __Z10make_splitRKNSt3__112basic_stringIcNS_11char_traitsIcEENS_9allocatorIcEEEERKfRKNS_13unordered_mapIS5_NS_6vectorIfNS3_IfEEEENS_4hashIS5_EENS_8equal_toIS5_EENS3_INS_4pairIS6_SD_EEEEEEb, symObjAddr: 0x3B40, symBinAddr: 0x1000140E0, symSize: 0xF30 }
  - { offsetInCU: 0x70898, offset: 0x102F46, size: 0x8, addend: 0x0, symName: __ZNSt3__14pairINS_13unordered_mapINS_12basic_stringIcNS_11char_traitsIcEENS_9allocatorIcEEEENS_6vectorIfNS5_IfEEEENS_4hashIS7_EENS_8equal_toIS7_EENS5_INS0_IKS7_SA_EEEEEESI_EC1B8ue170006IRSI_SL_LPv0EEEOT_OT0_, symObjAddr: 0x4A70, symBinAddr: 0x100015010, symSize: 0x50 }
  - { offsetInCU: 0x70A90, offset: 0x10313E, size: 0x8, addend: 0x0, symName: __ZNSt3__16vectorI8NodeDataNS_9allocatorIS1_EEE24__emplace_back_slow_pathIJS1_EEEvDpOT_, symObjAddr: 0xB030, symBinAddr: 0x10001B440, symSize: 0x270 }
  - { offsetInCU: 0x70D5E, offset: 0x10340C, size: 0x8, addend: 0x0, symName: __ZNSt3__14pairINS_13unordered_mapINS_12basic_stringIcNS_11char_traitsIcEENS_9allocatorIcEEEENS_6vectorIfNS5_IfEEEENS_4hashIS7_EENS_8equal_toIS7_EENS5_INS0_IKS7_SA_EEEEEESI_EC1B8ue170006IRSI_SL_LPv0EEEOT_OT0_.cold.2, symObjAddr: 0x1E870, symBinAddr: 0x10002CE50, symSize: 0x50 }
  - { offsetInCU: 0x711B7, offset: 0x103865, size: 0x8, addend: 0x0, symName: __ZNSt3__14pairINS_13unordered_mapINS_12basic_stringIcNS_11char_traitsIcEENS_9allocatorIcEEEENS_6vectorIfNS5_IfEEEENS_4hashIS7_EENS_8equal_toIS7_EENS5_INS0_IKS7_SA_EEEEEESI_EC1B8ue170006IRSI_SL_LPv0EEEOT_OT0_.cold.1, symObjAddr: 0x1E850, symBinAddr: 0x10002CE30, symSize: 0x20 }
  - { offsetInCU: 0x7161D, offset: 0x103CCB, size: 0x8, addend: 0x0, symName: __Z14makePredictionRKNSt3__16vectorIfNS_9allocatorIfEEEEb, symObjAddr: 0x4AC0, symBinAddr: 0x100015060, symSize: 0x1A0 }
  - { offsetInCU: 0x7205A, offset: 0x104708, size: 0x8, addend: 0x0, symName: __ZNSt3__112__hash_tableINS_17__hash_value_typeIfmEENS_22__unordered_map_hasherIfS2_NS_4hashIfEENS_8equal_toIfEELb1EEENS_21__unordered_map_equalIfS2_S7_S5_Lb1EEENS_9allocatorIS2_EEE25__emplace_unique_key_argsIfJRKNS_21piecewise_construct_tENS_5tupleIJRKfEEENSI_IJEEEEEENS_4pairINS_15__hash_iteratorIPNS_11__hash_nodeIS2_PvEEEEbEERKT_DpOT0_, symObjAddr: 0x13E10, symBinAddr: 0x1000225D0, symSize: 0x480 }
  - { offsetInCU: 0x72748, offset: 0x104DF6, size: 0x8, addend: 0x0, symName: __ZNSt3__113unordered_mapIfmNS_4hashIfEENS_8equal_toIfEENS_9allocatorINS_4pairIKfmEEEEED1B8ue170006Ev, symObjAddr: 0x4C60, symBinAddr: 0x100015200, symSize: 0x50 }
  - { offsetInCU: 0x72A5B, offset: 0x105109, size: 0x8, addend: 0x0, symName: __Z20checkConditionsDTreeiRKNSt3__113unordered_mapINS_12basic_stringIcNS_11char_traitsIcEENS_9allocatorIcEEEENS_6vectorIfNS4_IfEEEENS_4hashIS6_EENS_8equal_toIS6_EENS4_INS_4pairIKS6_S9_EEEEEEiiii, symObjAddr: 0x4CB0, symBinAddr: 0x100015250, symSize: 0x50 }
  - { offsetInCU: 0x73662, offset: 0x105D10, size: 0x8, addend: 0x0, symName: __Z8sub_treeP8TreeNodeNSt3__112basic_stringIcNS1_11char_traitsIcEENS1_9allocatorIcEEEEfS7_ifRNS1_6vectorI8NodeDataNS5_IS9_EEEENS1_13unordered_mapIS7_NS8_IfNS5_IfEEEENS1_4hashIS7_EENS1_8equal_toIS7_EENS5_INS1_4pairIKS7_SF_EEEEEESO_, symObjAddr: 0x4D00, symBinAddr: 0x1000152A0, symSize: 0x4F0 }
  - { offsetInCU: 0x75736, offset: 0x107DE4, size: 0x8, addend: 0x0, symName: __ZNSt3__16vectorI8NodeDataNS_9allocatorIS1_EEE24__emplace_back_slow_pathIJS1_EEEvDpOT_, symObjAddr: 0xB030, symBinAddr: 0x10001B440, symSize: 0x270 }
  - { offsetInCU: 0x75F9B, offset: 0x108649, size: 0x8, addend: 0x0, symName: __ZN8NodeDataD1Ev, symObjAddr: 0x51F0, symBinAddr: 0x100015790, symSize: 0x80 }
  - { offsetInCU: 0x767CF, offset: 0x108E7D, size: 0x8, addend: 0x0, symName: __Z9leaf_treeNSt3__113unordered_mapINS_12basic_stringIcNS_11char_traitsIcEENS_9allocatorIcEEEENS_6vectorIfNS4_IfEEEENS_4hashIS6_EENS_8equal_toIS6_EENS4_INS_4pairIKS6_S9_EEEEEES6_bS6_ffP8TreeNode, symObjAddr: 0x5270, symBinAddr: 0x100015810, symSize: 0xE0 }
  - { offsetInCU: 0x76B56, offset: 0x109204, size: 0x8, addend: 0x0, symName: __Z9init_treeNSt3__113unordered_mapINS_12basic_stringIcNS_11char_traitsIcEENS_9allocatorIcEEEENS_6vectorIfNS4_IfEEEENS_4hashIS6_EENS_8equal_toIS6_EENS4_INS_4pairIKS6_S9_EEEEEERNS7_I8NodeDataNS4_ISJ_EEEEP8TreeNode, symObjAddr: 0x5350, symBinAddr: 0x1000158F0, symSize: 0x1D0 }
  - { offsetInCU: 0x7770C, offset: 0x109DBA, size: 0x8, addend: 0x0, symName: __ZNSt3__16vectorI8NodeDataNS_9allocatorIS1_EEE21__push_back_slow_pathIS1_EEvOT_, symObjAddr: 0xB370, symBinAddr: 0x10001B780, symSize: 0x270 }
  - { offsetInCU: 0x784CB, offset: 0x10AB79, size: 0x8, addend: 0x0, symName: __Z19interativeTrainTreeNSt3__113unordered_mapINS_12basic_stringIcNS_11char_traitsIcEENS_9allocatorIcEEEENS_6vectorIfNS4_IfEEEENS_4hashIS6_EENS_8equal_toIS6_EENS4_INS_4pairIKS6_S9_EEEEEES6_biifii, symObjAddr: 0x5520, symBinAddr: 0x100015AC0, symSize: 0x1390 }
  - { offsetInCU: 0x80387, offset: 0x112A35, size: 0x8, addend: 0x0, symName: __ZNSt3__14pairINS_13unordered_mapINS_12basic_stringIcNS_11char_traitsIcEENS_9allocatorIcEEEENS_6vectorIfNS5_IfEEEENS_4hashIS7_EENS_8equal_toIS7_EENS5_INS0_IKS7_SA_EEEEEESI_ED2Ev, symObjAddr: 0xB5E0, symBinAddr: 0x10001B9F0, symSize: 0xE0 }
  - { offsetInCU: 0x80EF3, offset: 0x1135A1, size: 0x8, addend: 0x0, symName: __ZNSt3__16vectorI8NodeDataNS_9allocatorIS1_EEE16__destroy_vectorclB8ue170006Ev, symObjAddr: 0xB6C0, symBinAddr: 0x10001BAD0, symSize: 0xE0 }
  - { offsetInCU: 0x81E88, offset: 0x114536, size: 0x8, addend: 0x0, symName: __Z12split_stringRKNSt3__112basic_stringIcNS_11char_traitsIcEENS_9allocatorIcEEEES7_, symObjAddr: 0x68B0, symBinAddr: 0x100016E50, symSize: 0x2F0 }
  - { offsetInCU: 0x835D5, offset: 0x115C83, size: 0x8, addend: 0x0, symName: __ZNSt3__111basic_regexIcNS_12regex_traitsIcEEEC2B8ue170006INS_11char_traitsIcEENS_9allocatorIcEEEERKNS_12basic_stringIcT_T0_EENS_15regex_constants18syntax_option_typeE, symObjAddr: 0x144A0, symBinAddr: 0x100022C60, symSize: 0xC0 }
  - { offsetInCU: 0x837CA, offset: 0x115E78, size: 0x8, addend: 0x0, symName: __ZNSt3__114regex_iteratorINS_11__wrap_iterIPKcEEcNS_12regex_traitsIcEEEC2ES4_S4_RKNS_11basic_regexIcS6_EENS_15regex_constants15match_flag_typeE, symObjAddr: 0x1D850, symBinAddr: 0x10002BD80, symSize: 0x130 }
  - { offsetInCU: 0x83F4B, offset: 0x1165F9, size: 0x8, addend: 0x0, symName: __ZNSt3__120regex_token_iteratorINS_11__wrap_iterIPKcEEcNS_12regex_traitsIcEEEC2ERKS7_, symObjAddr: 0x1D980, symBinAddr: 0x10002BEB0, symSize: 0x2F0 }
  - { offsetInCU: 0x847BB, offset: 0x116E69, size: 0x8, addend: 0x0, symName: __ZNSt3__16vectorINS_12basic_stringIcNS_11char_traitsIcEENS_9allocatorIcEEEENS4_IS6_EEEC2INS_20regex_token_iteratorINS_11__wrap_iterIPKcEEcNS_12regex_traitsIcEEEELi0EEET_SI_, symObjAddr: 0xB7A0, symBinAddr: 0x10001BBB0, symSize: 0x1A0 }
  - { offsetInCU: 0x855C1, offset: 0x117C6F, size: 0x8, addend: 0x0, symName: __ZNSt3__120regex_token_iteratorINS_11__wrap_iterIPKcEEcNS_12regex_traitsIcEEED1Ev, symObjAddr: 0x6BA0, symBinAddr: 0x100017140, symSize: 0x40 }
  - { offsetInCU: 0x85908, offset: 0x117FB6, size: 0x8, addend: 0x0, symName: __ZNSt3__111basic_regexIcNS_12regex_traitsIcEEED1Ev, symObjAddr: 0x6BE0, symBinAddr: 0x100017180, symSize: 0x50 }
  - { offsetInCU: 0x85CB3, offset: 0x118361, size: 0x8, addend: 0x0, symName: __Z7predictRKNSt3__113unordered_mapINS_12basic_stringIcNS_11char_traitsIcEENS_9allocatorIcEEEEfNS_4hashIS6_EENS_8equal_toIS6_EENS4_INS_4pairIKS6_fEEEEEEP8TreeNode, symObjAddr: 0x6C30, symBinAddr: 0x1000171D0, symSize: 0x160 }
  - { offsetInCU: 0x865E1, offset: 0x118C8F, size: 0x8, addend: 0x0, symName: __ZNKSt3__112__hash_tableINS_17__hash_value_typeINS_12basic_stringIcNS_11char_traitsIcEENS_9allocatorIcEEEEfEENS_22__unordered_map_hasherIS7_S8_NS_4hashIS7_EENS_8equal_toIS7_EELb1EEENS_21__unordered_map_equalIS7_S8_SD_SB_Lb1EEENS5_IS8_EEE4findIS7_EENS_21__hash_const_iteratorIPNS_11__hash_nodeIS8_PvEEEERKT_, symObjAddr: 0x1DC70, symBinAddr: 0x10002C1A0, symSize: 0x2F0 }
  - { offsetInCU: 0x86FCF, offset: 0x11967D, size: 0x8, addend: 0x0, symName: __Z11predictionsNSt3__113unordered_mapINS_12basic_stringIcNS_11char_traitsIcEENS_9allocatorIcEEEENS_6vectorIfNS4_IfEEEENS_4hashIS6_EENS_8equal_toIS6_EENS4_INS_4pairIKS6_S9_EEEEEEP8TreeNode, symObjAddr: 0x6E00, symBinAddr: 0x100017330, symSize: 0x400 }
  - { offsetInCU: 0x87F16, offset: 0x11A5C4, size: 0x8, addend: 0x0, symName: __ZNSt3__112__hash_tableINS_17__hash_value_typeINS_12basic_stringIcNS_11char_traitsIcEENS_9allocatorIcEEEEfEENS_22__unordered_map_hasherIS7_S8_NS_4hashIS7_EENS_8equal_toIS7_EELb1EEENS_21__unordered_map_equalIS7_S8_SD_SB_Lb1EEENS5_IS8_EEE25__emplace_unique_key_argsIS7_JRKNS_21piecewise_construct_tENS_5tupleIJRKS7_EEENSN_IJEEEEEENS_4pairINS_15__hash_iteratorIPNS_11__hash_nodeIS8_PvEEEEbEERKT_DpOT0_, symObjAddr: 0x1DF60, symBinAddr: 0x10002C490, symSize: 0x6A0 }
  - { offsetInCU: 0x88AE9, offset: 0x11B197, size: 0x8, addend: 0x0, symName: __ZNSt3__113unordered_mapINS_12basic_stringIcNS_11char_traitsIcEENS_9allocatorIcEEEEfNS_4hashIS6_EENS_8equal_toIS6_EENS4_INS_4pairIKS6_fEEEEED1B8ue170006Ev, symObjAddr: 0x7200, symBinAddr: 0x100017730, symSize: 0x70 }
  - { offsetInCU: 0x890BE, offset: 0x11B76C, size: 0x8, addend: 0x0, symName: __Z11destroyTreeP8TreeNode, symObjAddr: 0x7270, symBinAddr: 0x1000177A0, symSize: 0x70 }
  - { offsetInCU: 0x8981E, offset: 0x11BECC, size: 0x8, addend: 0x0, symName: __ZNKSt3__16vectorINS_6threadENS_9allocatorIS1_EEE20__throw_length_errorB8ue170006Ev, symObjAddr: 0x78B0, symBinAddr: 0x100017D00, symSize: 0x10 }
  - { offsetInCU: 0x89848, offset: 0x11BEF6, size: 0x8, addend: 0x0, symName: __ZNSt3__16vectorINS_6threadENS_9allocatorIS1_EEE24__emplace_back_slow_pathIJRFvR10SharedDataiENS_17reference_wrapperIS6_EERiEEEvDpOT_, symObjAddr: 0x78C0, symBinAddr: 0x100017D10, symSize: 0x2B0 }
  - { offsetInCU: 0x89853, offset: 0x11BF01, size: 0x8, addend: 0x0, symName: __ZNSt3__114__split_bufferINS_6threadERNS_9allocatorIS1_EEED1Ev, symObjAddr: 0x7860, symBinAddr: 0x100017CB0, symSize: 0x50 }
  - { offsetInCU: 0x8A1E6, offset: 0x11C894, size: 0x8, addend: 0x0, symName: __ZNSt3__110unique_ptrINS_5tupleIJNS0_INS_15__thread_structENS_14default_deleteIS2_EEEEPFvR11SharedData0iENS_17reference_wrapperIS6_EEiEEENS3_ISC_EEED1B8ue170006Ev, symObjAddr: 0x77D0, symBinAddr: 0x100017C20, symSize: 0x50 }
  - { offsetInCU: 0x8A399, offset: 0x11CA47, size: 0x8, addend: 0x0, symName: __ZNSt3__110unique_ptrINS_15__thread_structENS_14default_deleteIS1_EEED1B8ue170006Ev, symObjAddr: 0x7820, symBinAddr: 0x100017C70, symSize: 0x40 }
  - { offsetInCU: 0x8AB0F, offset: 0x11D1BD, size: 0x8, addend: 0x0, symName: __ZNSt3__110unique_ptrINS_5tupleIJNS0_INS_15__thread_structENS_14default_deleteIS2_EEEEPFvR10SharedDataiENS_17reference_wrapperIS6_EEiEEENS3_ISC_EEED1B8ue170006Ev, symObjAddr: 0x7CC0, symBinAddr: 0x100018110, symSize: 0x50 }
  - { offsetInCU: 0x8B64F, offset: 0x11DCFD, size: 0x8, addend: 0x0, symName: __ZNSt3__110unique_ptrINS_5tupleIJNS0_INS_15__thread_structENS_14default_deleteIS2_EEEEPFvR11SharedData2iENS_17reference_wrapperIS6_EEiEEENS3_ISC_EEED1B8ue170006Ev, symObjAddr: 0x8700, symBinAddr: 0x100018B50, symSize: 0x50 }
  - { offsetInCU: 0x8BCC7, offset: 0x11E375, size: 0x8, addend: 0x0, symName: __ZNSt3__16vectorIiNS_9allocatorIiEEEC2INS_21__tree_const_iteratorIiPNS_11__tree_nodeIiPvEElEELi0EEET_SB_, symObjAddr: 0x8A40, symBinAddr: 0x100018E70, symSize: 0x130 }
  - { offsetInCU: 0x8BCD2, offset: 0x11E380, size: 0x8, addend: 0x0, symName: __ZNSt3__114__split_bufferINS_6vectorIiNS_9allocatorIiEEEERNS2_IS4_EEED1Ev, symObjAddr: 0x89D0, symBinAddr: 0x100018E10, symSize: 0x60 }
  - { offsetInCU: 0x8C1CE, offset: 0x11E87C, size: 0x8, addend: 0x0, symName: __ZNSt3__16vectorINS0_IiNS_9allocatorIiEEEENS1_IS3_EEEC2INS_11__wrap_iterIPS3_EELi0EEET_SA_.cold.1, symObjAddr: 0x1E8C0, symBinAddr: 0x10002CEA0, symSize: 0x50 }
  - { offsetInCU: 0x8C548, offset: 0x11EBF6, size: 0x8, addend: 0x0, symName: __ZNSt3__128__exception_guard_exceptionsINS_29_AllocatorDestroyRangeReverseINS_9allocatorINS_6vectorIiNS2_IiEEEEEEPS5_EEED1B8ue170006Ev, symObjAddr: 0x8D40, symBinAddr: 0x100019170, symSize: 0x50 }
  - { offsetInCU: 0x8CCD9, offset: 0x11F387, size: 0x8, addend: 0x0, symName: __ZNKSt3__16vectorINS_4pairINS_12basic_stringIcNS_11char_traitsIcEENS_9allocatorIcEEEEfEENS5_IS8_EEE20__throw_length_errorB8ue170006Ev, symObjAddr: 0x9350, symBinAddr: 0x100019770, symSize: 0x10 }
  - { offsetInCU: 0x8CD03, offset: 0x11F3B1, size: 0x8, addend: 0x0, symName: '__ZNSt3__111__introsortINS_17_ClassicAlgPolicyERZ14get_best_splitRKNS_12basic_stringIcNS_11char_traitsIcEENS_9allocatorIcEEEERKNS_13unordered_mapIS7_NS_6vectorIfNS5_IfEEEENS_4hashIS7_EENS_8equal_toIS7_EENS5_INS_4pairIS8_SD_EEEEEEE3$_0PNSI_IS7_fEELb0EEEvT1_SS_T0_NS_15iterator_traitsISS_E15difference_typeEb', symObjAddr: 0x9360, symBinAddr: 0x100019780, symSize: 0x13A0 }
  - { offsetInCU: 0x8CD0E, offset: 0x11F3BC, size: 0x8, addend: 0x0, symName: __ZNSt3__114__split_bufferINS_4pairINS_12basic_stringIcNS_11char_traitsIcEENS_9allocatorIcEEEEfEERNS5_IS8_EEED1Ev, symObjAddr: 0x92F0, symBinAddr: 0x100019710, symSize: 0x60 }
  - { offsetInCU: 0x8D3BA, offset: 0x11FA68, size: 0x8, addend: 0x0, symName: __ZNSt3__114__split_bufferI8NodeDataRNS_9allocatorIS1_EEED2Ev, symObjAddr: 0xB2B0, symBinAddr: 0x10001B6C0, symSize: 0xC0 }
  - { offsetInCU: 0x8DB2F, offset: 0x1201DD, size: 0x8, addend: 0x0, symName: __ZNKSt3__16vectorI8NodeDataNS_9allocatorIS1_EEE20__throw_length_errorB8ue170006Ev, symObjAddr: 0xB2A0, symBinAddr: 0x10001B6B0, symSize: 0x10 }
  - { offsetInCU: 0x8DB59, offset: 0x120207, size: 0x8, addend: 0x0, symName: __ZNSt3__114__split_bufferI8NodeDataRNS_9allocatorIS1_EEED2Ev, symObjAddr: 0xB2B0, symBinAddr: 0x10001B6C0, symSize: 0xC0 }
  - { offsetInCU: 0x8DC38, offset: 0x1202E6, size: 0x8, addend: 0x0, symName: __ZNSt3__16vectorINS_12basic_stringIcNS_11char_traitsIcEENS_9allocatorIcEEEENS4_IS6_EEE16__init_with_sizeB8ue170006INS_20regex_token_iteratorINS_11__wrap_iterIPKcEEcNS_12regex_traitsIcEEEESH_EEvT_T0_m, symObjAddr: 0xBA50, symBinAddr: 0x10001BE60, symSize: 0x150 }
  - { offsetInCU: 0x8E4DD, offset: 0x120B8B, size: 0x8, addend: 0x0, symName: __ZNKSt3__120regex_token_iteratorINS_11__wrap_iterIPKcEEcNS_12regex_traitsIcEEEeqERKS7_, symObjAddr: 0xBBA0, symBinAddr: 0x10001BFB0, symSize: 0x140 }
  - { offsetInCU: 0x8E78F, offset: 0x120E3D, size: 0x8, addend: 0x0, symName: __ZNSt3__120regex_token_iteratorINS_11__wrap_iterIPKcEEcNS_12regex_traitsIcEEEppEv, symObjAddr: 0xBCE0, symBinAddr: 0x10001C0F0, symSize: 0x2C0 }
  - { offsetInCU: 0x8EFCE, offset: 0x12167C, size: 0x8, addend: 0x0, symName: __ZNSt3__16vectorINS_12basic_stringIcNS_11char_traitsIcEENS_9allocatorIcEEEENS4_IS6_EEE18__construct_at_endINS_20regex_token_iteratorINS_11__wrap_iterIPKcEEcNS_12regex_traitsIcEEEESH_EEvT_T0_m, symObjAddr: 0x10690, symBinAddr: 0x100020AA0, symSize: 0xF0 }
  - { offsetInCU: 0x8F7DD, offset: 0x121E8B, size: 0x8, addend: 0x0, symName: __ZNSt3__130__uninitialized_allocator_copyB8ue170006INS_9allocatorINS_12basic_stringIcNS_11char_traitsIcEENS1_IcEEEEEENS_20regex_token_iteratorINS_11__wrap_iterIPKcEEcNS_12regex_traitsIcEEEESF_PS6_EET2_RT_T0_T1_SH_, symObjAddr: 0x10810, symBinAddr: 0x100020C10, symSize: 0x220 }
  - { offsetInCU: 0x8F7E8, offset: 0x121E96, size: 0x8, addend: 0x0, symName: __ZNSt3__128__exception_guard_exceptionsINS_6vectorINS_12basic_stringIcNS_11char_traitsIcEENS_9allocatorIcEEEENS5_IS7_EEE16__destroy_vectorEED1B8ue170006Ev, symObjAddr: 0x10780, symBinAddr: 0x100020B90, symSize: 0x80 }
  - { offsetInCU: 0x8FADF, offset: 0x12218D, size: 0x8, addend: 0x0, symName: __ZNKSt3__19sub_matchINS_11__wrap_iterIPKcEEE7compareB8ue170006ERKS5_, symObjAddr: 0xBFA0, symBinAddr: 0x10001C3B0, symSize: 0x510 }
  - { offsetInCU: 0x909C7, offset: 0x123075, size: 0x8, addend: 0x0, symName: __ZNSt3__114regex_iteratorINS_11__wrap_iterIPKcEEcNS_12regex_traitsIcEEEppEv, symObjAddr: 0xC4B0, symBinAddr: 0x10001C8C0, symSize: 0x230 }
  - { offsetInCU: 0x911F6, offset: 0x1238A4, size: 0x8, addend: 0x0, symName: __ZNKSt3__16vectorINS_9sub_matchINS_11__wrap_iterIPKcEEEENS_9allocatorIS6_EEE20__throw_length_errorB8ue170006Ev, symObjAddr: 0xC6E0, symBinAddr: 0x10001CAF0, symSize: 0x10 }
  - { offsetInCU: 0x91220, offset: 0x1238CE, size: 0x8, addend: 0x0, symName: __ZNKSt3__111basic_regexIcNS_12regex_traitsIcEEE8__searchINS_9allocatorINS_9sub_matchIPKcEEEEEEbS8_S8_RNS_13match_resultsIS8_T_EENS_15regex_constants15match_flag_typeE, symObjAddr: 0xC6F0, symBinAddr: 0x10001CB00, symSize: 0x2D0 }
  - { offsetInCU: 0x91727, offset: 0x123DD5, size: 0x8, addend: 0x0, symName: __ZNKSt3__111basic_regexIcNS_12regex_traitsIcEEE8__searchINS_9allocatorINS_9sub_matchIPKcEEEEEEbS8_S8_RNS_13match_resultsIS8_T_EENS_15regex_constants15match_flag_typeE, symObjAddr: 0xC6F0, symBinAddr: 0x10001CB00, symSize: 0x2D0 }
  - { offsetInCU: 0x91B8D, offset: 0x12423B, size: 0x8, addend: 0x0, symName: __ZNSt3__113match_resultsINS_11__wrap_iterIPKcEENS_9allocatorINS_9sub_matchIS4_EEEEE8__assignB8ue170006IS3_NS5_INS6_IS3_EEEEEEvS4_S4_RKNS0_IT_T0_EEb, symObjAddr: 0xC9C0, symBinAddr: 0x10001CDD0, symSize: 0x1C0 }
  - { offsetInCU: 0x9247A, offset: 0x124B28, size: 0x8, addend: 0x0, symName: __ZNSt3__16vectorINS_9sub_matchIPKcEENS_9allocatorIS4_EEE6assignEmRKS4_, symObjAddr: 0xCB80, symBinAddr: 0x10001CF90, symSize: 0x230 }
  - { offsetInCU: 0x92AAC, offset: 0x12515A, size: 0x8, addend: 0x0, symName: __ZNKSt3__111basic_regexIcNS_12regex_traitsIcEEE27__match_at_start_posix_subsINS_9allocatorINS_9sub_matchIPKcEEEEEEbS8_S8_RNS_13match_resultsIS8_T_EENS_15regex_constants15match_flag_typeEb, symObjAddr: 0xDD20, symBinAddr: 0x10001E130, symSize: 0x6E0 }
  - { offsetInCU: 0x94A3F, offset: 0x1270ED, size: 0x8, addend: 0x0, symName: __ZNKSt3__111basic_regexIcNS_12regex_traitsIcEEE21__match_at_start_ecmaINS_9allocatorINS_9sub_matchIPKcEEEEEEbS8_S8_RNS_13match_resultsIS8_T_EENS_15regex_constants15match_flag_typeEb, symObjAddr: 0xCDB0, symBinAddr: 0x10001D1C0, symSize: 0x4E0 }
  - { offsetInCU: 0x95B3D, offset: 0x1281EB, size: 0x8, addend: 0x0, symName: __ZNKSt3__111basic_regexIcNS_12regex_traitsIcEEE29__match_at_start_posix_nosubsINS_9allocatorINS_9sub_matchIPKcEEEEEEbS8_S8_RNS_13match_resultsIS8_T_EENS_15regex_constants15match_flag_typeEb, symObjAddr: 0xD290, symBinAddr: 0x10001D6A0, symSize: 0xA90 }
  - { offsetInCU: 0x97A85, offset: 0x12A133, size: 0x8, addend: 0x0, symName: __ZNSt3__16vectorINS_9sub_matchINS_11__wrap_iterIPKcEEEENS_9allocatorIS6_EEE8__appendEm, symObjAddr: 0x104E0, symBinAddr: 0x1000208F0, symSize: 0x1B0 }
  - { offsetInCU: 0x98310, offset: 0x12A9BE, size: 0x8, addend: 0x0, symName: __ZNKSt3__16vectorINS_9sub_matchIPKcEENS_9allocatorIS4_EEE20__throw_length_errorB8ue170006Ev, symObjAddr: 0xE960, symBinAddr: 0x10001ED70, symSize: 0x10 }
  - { offsetInCU: 0x9833A, offset: 0x12A9E8, size: 0x8, addend: 0x0, symName: __ZNSt3__16vectorINS_4pairImPKcEENS_9allocatorIS4_EEE8__appendEm, symObjAddr: 0xE970, symBinAddr: 0x10001ED80, symSize: 0x150 }
  - { offsetInCU: 0x9897A, offset: 0x12B028, size: 0x8, addend: 0x0, symName: __ZNSt3__16vectorINS_7__stateIcEENS_9allocatorIS2_EEE21__push_back_slow_pathIS2_EEvOT_, symObjAddr: 0xE560, symBinAddr: 0x10001E970, symSize: 0x230 }
  - { offsetInCU: 0x9937F, offset: 0x12BA2D, size: 0x8, addend: 0x0, symName: __ZNKSt3__16vectorINS_7__stateIcEENS_9allocatorIS2_EEE20__throw_length_errorB8ue170006Ev, symObjAddr: 0xE790, symBinAddr: 0x10001EBA0, symSize: 0x10 }
  - { offsetInCU: 0x99393, offset: 0x12BA41, size: 0x8, addend: 0x0, symName: __ZNSt3__16vectorINS_9sub_matchIPKcEENS_9allocatorIS4_EEE8__appendEmRKS4_, symObjAddr: 0xE7A0, symBinAddr: 0x10001EBB0, symSize: 0x1C0 }
  - { offsetInCU: 0x99995, offset: 0x12C043, size: 0x8, addend: 0x0, symName: __ZNSt3__16vectorINS_4pairImPKcEENS_9allocatorIS4_EEE8__appendEm, symObjAddr: 0xE970, symBinAddr: 0x10001ED80, symSize: 0x150 }
  - { offsetInCU: 0x99F58, offset: 0x12C606, size: 0x8, addend: 0x0, symName: __ZNSt3__17__stateIcEC2ERKS1_, symObjAddr: 0xEAD0, symBinAddr: 0x10001EEE0, symSize: 0x1D0 }
  - { offsetInCU: 0x9A616, offset: 0x12CCC4, size: 0x8, addend: 0x0, symName: __ZNSt3__17__stateIcED1Ev, symObjAddr: 0xE400, symBinAddr: 0x10001E810, symSize: 0x40 }
  - { offsetInCU: 0x9A8DF, offset: 0x12CF8D, size: 0x8, addend: 0x0, symName: __ZNSt3__16vectorINS_7__stateIcEENS_9allocatorIS2_EEED1B8ue170006Ev, symObjAddr: 0xE4E0, symBinAddr: 0x10001E8F0, symSize: 0x80 }
  - { offsetInCU: 0x9B1E0, offset: 0x12D88E, size: 0x8, addend: 0x0, symName: __ZNSt3__15dequeINS_7__stateIcEENS_9allocatorIS2_EEE19__add_back_capacityEv, symObjAddr: 0xEE70, symBinAddr: 0x10001F280, symSize: 0x800 }
  - { offsetInCU: 0x9C334, offset: 0x12E9E2, size: 0x8, addend: 0x0, symName: __ZNSt3__15dequeINS_7__stateIcEENS_9allocatorIS2_EEE20__add_front_capacityEv, symObjAddr: 0xFAC0, symBinAddr: 0x10001FED0, symSize: 0x450 }
  - { offsetInCU: 0x9D18F, offset: 0x12F83D, size: 0x8, addend: 0x0, symName: __ZNSt3__15dequeINS_7__stateIcEENS_9allocatorIS2_EEED1B8ue170006Ev, symObjAddr: 0xEE00, symBinAddr: 0x10001F210, symSize: 0x70 }
  - { offsetInCU: 0x9D5B2, offset: 0x12FC60, size: 0x8, addend: 0x0, symName: __ZNSt3__16vectorINS_9sub_matchIPKcEENS_9allocatorIS4_EEE18__assign_with_sizeB8ue170006IPS4_S9_EEvT_T0_l, symObjAddr: 0x10130, symBinAddr: 0x100020540, symSize: 0x1F0 }
  - { offsetInCU: 0x9DE2B, offset: 0x1304D9, size: 0x8, addend: 0x0, symName: __ZNSt3__16vectorINS_4pairImPKcEENS_9allocatorIS4_EEE18__assign_with_sizeB8ue170006IPS4_S9_EEvT_T0_l, symObjAddr: 0x10320, symBinAddr: 0x100020730, symSize: 0x1C0 }
  - { offsetInCU: 0x9E844, offset: 0x130EF2, size: 0x8, addend: 0x0, symName: __ZNKSt3__16vectorINS_7__stateIcEENS_9allocatorIS2_EEE20__throw_length_errorB8ue170006Ev, symObjAddr: 0xE790, symBinAddr: 0x10001EBA0, symSize: 0x10 }
  - { offsetInCU: 0x9E86E, offset: 0x130F1C, size: 0x8, addend: 0x0, symName: __ZNSt3__16vectorINS_9sub_matchIPKcEENS_9allocatorIS4_EEE8__appendEmRKS4_, symObjAddr: 0xE7A0, symBinAddr: 0x10001EBB0, symSize: 0x1C0 }
  - { offsetInCU: 0x9EE21, offset: 0x1314CF, size: 0x8, addend: 0x0, symName: __ZNKSt3__16vectorINS_4pairImPKcEENS_9allocatorIS4_EEE20__throw_length_errorB8ue170006Ev, symObjAddr: 0xEAC0, symBinAddr: 0x10001EED0, symSize: 0x10 }
  - { offsetInCU: 0x9EE4B, offset: 0x1314F9, size: 0x8, addend: 0x0, symName: __ZNSt3__17__stateIcEC2ERKS1_, symObjAddr: 0xEAD0, symBinAddr: 0x10001EEE0, symSize: 0x1D0 }
  - { offsetInCU: 0x9F1D5, offset: 0x131883, size: 0x8, addend: 0x0, symName: __ZNSt3__15dequeINS_7__stateIcEENS_9allocatorIS2_EEE5clearEv, symObjAddr: 0xECA0, symBinAddr: 0x10001F0B0, symSize: 0x160 }
  - { offsetInCU: 0x9FC3B, offset: 0x1322E9, size: 0x8, addend: 0x0, symName: __ZNSt3__114__split_bufferIPNS_7__stateIcEENS_9allocatorIS3_EEE9push_backEOS3_, symObjAddr: 0xF670, symBinAddr: 0x10001FA80, symSize: 0x230 }
  - { offsetInCU: 0xA00D9, offset: 0x132787, size: 0x8, addend: 0x0, symName: __ZNSt3__114__split_bufferIPNS_7__stateIcEENS_9allocatorIS3_EEE10push_frontEOS3_, symObjAddr: 0xF8A0, symBinAddr: 0x10001FCB0, symSize: 0x220 }
  - { offsetInCU: 0xA0629, offset: 0x132CD7, size: 0x8, addend: 0x0, symName: __ZNSt3__114__split_bufferIPNS_7__stateIcEENS_9allocatorIS3_EEE10push_frontERKS3_, symObjAddr: 0xFF10, symBinAddr: 0x100020320, symSize: 0x220 }
  - { offsetInCU: 0xA102A, offset: 0x1336D8, size: 0x8, addend: 0x0, symName: __ZNSt3__14pairINS_20regex_token_iteratorINS_11__wrap_iterIPKcEEcNS_12regex_traitsIcEEEES8_ED1Ev, symObjAddr: 0x10DD0, symBinAddr: 0x1000211D0, symSize: 0x70 }
  - { offsetInCU: 0xA16F0, offset: 0x133D9E, size: 0x8, addend: 0x0, symName: __ZNSt3__119__unwrap_range_implINS_20regex_token_iteratorINS_11__wrap_iterIPKcEEcNS_12regex_traitsIcEEEES8_E8__unwrapB8ue170006ES8_S8_, symObjAddr: 0x10E40, symBinAddr: 0x100021240, symSize: 0x260 }
  - { offsetInCU: 0xA307F, offset: 0x13572D, size: 0x8, addend: 0x0, symName: __ZNSt3__128__exception_guard_exceptionsINS_29_AllocatorDestroyRangeReverseINS_9allocatorINS_12basic_stringIcNS_11char_traitsIcEENS2_IcEEEEEEPS7_EEED1B8ue170006Ev, symObjAddr: 0x110A0, symBinAddr: 0x1000214A0, symSize: 0x50 }
  - { offsetInCU: 0xA3438, offset: 0x135AE6, size: 0x8, addend: 0x0, symName: __ZNSt3__110shared_ptrINS_13__empty_stateIcEEED1B8ue170006Ev, symObjAddr: 0x110F0, symBinAddr: 0x1000214F0, symSize: 0x40 }
  - { offsetInCU: 0xA3520, offset: 0x135BCE, size: 0x8, addend: 0x0, symName: __ZNSt3__116__variant_detail12__visitation6__base12__dispatcherIJLm0EEE10__dispatchB8ue170006IOZNS0_6__dtorINS0_8__traitsIJfNS_12basic_stringIcNS_11char_traitsIcEENS_9allocatorIcEEEEEEELNS0_6_TraitE1EE9__destroyB8ue170006EvEUlRT_E_JRNS0_6__baseILSF_1EJfSD_EEEEEEDcSH_DpT0_, symObjAddr: 0x11180, symBinAddr: 0x100021530, symSize: 0x10 }
  - { offsetInCU: 0xA35E1, offset: 0x135C8F, size: 0x8, addend: 0x0, symName: __ZNSt3__116__variant_detail12__visitation6__base12__dispatcherIJLm1EEE10__dispatchB8ue170006IOZNS0_6__dtorINS0_8__traitsIJfNS_12basic_stringIcNS_11char_traitsIcEENS_9allocatorIcEEEEEEELNS0_6_TraitE1EE9__destroyB8ue170006EvEUlRT_E_JRNS0_6__baseILSF_1EJfSD_EEEEEEDcSH_DpT0_, symObjAddr: 0x11190, symBinAddr: 0x100021540, symSize: 0x20 }
  - { offsetInCU: 0xA3B50, offset: 0x1361FE, size: 0x8, addend: 0x0, symName: __ZNSt3__117bad_function_callD1Ev, symObjAddr: 0x11270, symBinAddr: 0x1000215A0, symSize: 0x10 }
  - { offsetInCU: 0xA3BA6, offset: 0x136254, size: 0x8, addend: 0x0, symName: __ZNSt3__117bad_function_callD0Ev, symObjAddr: 0x11280, symBinAddr: 0x1000215B0, symSize: 0x20 }
  - { offsetInCU: 0xA42D9, offset: 0x136987, size: 0x8, addend: 0x0, symName: __ZNSt3__110__function6__funcIPFfRKNS_6vectorIfNS_9allocatorIfEEEEENS3_IS9_EES8_ED1Ev, symObjAddr: 0x11710, symBinAddr: 0x1000218A0, symSize: 0x10 }
  - { offsetInCU: 0xA4305, offset: 0x1369B3, size: 0x8, addend: 0x0, symName: __ZNSt3__110__function6__funcIPFfRKNS_6vectorIfNS_9allocatorIfEEEEENS3_IS9_EES8_ED0Ev, symObjAddr: 0x11720, symBinAddr: 0x1000218B0, symSize: 0x10 }
  - { offsetInCU: 0xA4516, offset: 0x136BC4, size: 0x8, addend: 0x0, symName: __ZNKSt3__110__function6__funcIPFfRKNS_6vectorIfNS_9allocatorIfEEEEENS3_IS9_EES8_E7__cloneEv, symObjAddr: 0x11730, symBinAddr: 0x1000218C0, symSize: 0x30 }
  - { offsetInCU: 0xA4842, offset: 0x136EF0, size: 0x8, addend: 0x0, symName: __ZNKSt3__110__function6__funcIPFfRKNS_6vectorIfNS_9allocatorIfEEEEENS3_IS9_EES8_E7__cloneEPNS0_6__baseIS8_EE, symObjAddr: 0x11760, symBinAddr: 0x1000218F0, symSize: 0x20 }
  - { offsetInCU: 0xA49BE, offset: 0x13706C, size: 0x8, addend: 0x0, symName: __ZNSt3__110__function6__funcIPFfRKNS_6vectorIfNS_9allocatorIfEEEEENS3_IS9_EES8_E7destroyEv, symObjAddr: 0x11780, symBinAddr: 0x100021910, symSize: 0x10 }
  - { offsetInCU: 0xA4A13, offset: 0x1370C1, size: 0x8, addend: 0x0, symName: __ZNSt3__110__function6__funcIPFfRKNS_6vectorIfNS_9allocatorIfEEEEENS3_IS9_EES8_E18destroy_deallocateEv, symObjAddr: 0x11790, symBinAddr: 0x100021920, symSize: 0x10 }
  - { offsetInCU: 0xA4B38, offset: 0x1371E6, size: 0x8, addend: 0x0, symName: __ZNSt3__110__function6__funcIPFfRKNS_6vectorIfNS_9allocatorIfEEEEENS3_IS9_EES8_EclES7_, symObjAddr: 0x117A0, symBinAddr: 0x100021930, symSize: 0x10 }
  - { offsetInCU: 0xA4C3D, offset: 0x1372EB, size: 0x8, addend: 0x0, symName: __ZNKSt3__110__function6__funcIPFfRKNS_6vectorIfNS_9allocatorIfEEEEENS3_IS9_EES8_E6targetERKSt9type_info, symObjAddr: 0x117B0, symBinAddr: 0x100021940, symSize: 0x20 }
  - { offsetInCU: 0xA4CAD, offset: 0x13735B, size: 0x8, addend: 0x0, symName: __ZNKSt3__110__function6__funcIPFfRKNS_6vectorIfNS_9allocatorIfEEEEENS3_IS9_EES8_E11target_typeEv, symObjAddr: 0x117D0, symBinAddr: 0x100021960, symSize: 0x10 }
  - { offsetInCU: 0xA4CD4, offset: 0x137382, size: 0x8, addend: 0x0, symName: __ZNSt12out_of_rangeC1B8ue170006EPKc, symObjAddr: 0x11FD0, symBinAddr: 0x1000219C0, symSize: 0x30 }
  - { offsetInCU: 0xA5D1E, offset: 0x1383CC, size: 0x8, addend: 0x0, symName: __ZNSt3__112__hash_tableINS_17__hash_value_typeINS_12basic_stringIcNS_11char_traitsIcEENS_9allocatorIcEEEENS_5tupleIJffbbEEEEENS_22__unordered_map_hasherIS7_SA_NS_4hashIS7_EENS_8equal_toIS7_EELb1EEENS_21__unordered_map_equalIS7_SA_SF_SD_Lb1EEENS5_ISA_EEE11__do_rehashILb1EEEvm, symObjAddr: 0x126E0, symBinAddr: 0x1000220D0, symSize: 0x210 }
  - { offsetInCU: 0xA6197, offset: 0x138845, size: 0x8, addend: 0x0, symName: __ZNSt3__110unique_ptrINS_11__hash_nodeINS_17__hash_value_typeINS_12basic_stringIcNS_11char_traitsIcEENS_9allocatorIcEEEENS_5tupleIJffbbEEEEEPvEENS_22__hash_node_destructorINS6_ISD_EEEEED1B8ue170006Ev, symObjAddr: 0x126A0, symBinAddr: 0x100022090, symSize: 0x40 }
  - { offsetInCU: 0xA7DC0, offset: 0x13A46E, size: 0x8, addend: 0x0, symName: __ZNSt3__14pairIKNS_12basic_stringIcNS_11char_traitsIcEENS_9allocatorIcEEEENS_6vectorIfNS4_IfEEEEEC2B8ue170006ERKSB_.cold.1, symObjAddr: 0x1E910, symBinAddr: 0x10002CEF0, symSize: 0x15 }
  - { offsetInCU: 0xA8334, offset: 0x13A9E2, size: 0x8, addend: 0x0, symName: __ZNSt3__112__hash_tableINS_17__hash_value_typeIfmEENS_22__unordered_map_hasherIfS2_NS_4hashIfEENS_8equal_toIfEELb1EEENS_21__unordered_map_equalIfS2_S7_S5_Lb1EEENS_9allocatorIS2_EEE11__do_rehashILb1EEEvm, symObjAddr: 0x14290, symBinAddr: 0x100022A50, symSize: 0x210 }
  - { offsetInCU: 0xA88C9, offset: 0x13AF77, size: 0x8, addend: 0x0, symName: __ZNSt3__111basic_regexIcNS_12regex_traitsIcEEE7__parseINS_11__wrap_iterIPKcEEEET_S9_S9_, symObjAddr: 0x14560, symBinAddr: 0x100022D20, symSize: 0x1C0 }
  - { offsetInCU: 0xA957F, offset: 0x13BC2D, size: 0x8, addend: 0x0, symName: __ZNSt3__111basic_regexIcNS_12regex_traitsIcEEE13__parse_egrepINS_11__wrap_iterIPKcEEEET_S9_S9_, symObjAddr: 0x14EA0, symBinAddr: 0x100023660, symSize: 0x1E0 }
  - { offsetInCU: 0xA9BAD, offset: 0x13C25B, size: 0x8, addend: 0x0, symName: __ZNSt3__111basic_regexIcNS_12regex_traitsIcEEE24__parse_extended_reg_expINS_11__wrap_iterIPKcEEEET_S9_S9_, symObjAddr: 0x14B30, symBinAddr: 0x1000232F0, symSize: 0x190 }
  - { offsetInCU: 0xAA00C, offset: 0x13C6BA, size: 0x8, addend: 0x0, symName: __ZNSt3__111basic_regexIcNS_12regex_traitsIcEEE16__parse_ecma_expINS_11__wrap_iterIPKcEEEET_S9_S9_, symObjAddr: 0x14770, symBinAddr: 0x100022F30, symSize: 0x270 }
  - { offsetInCU: 0xAA6E8, offset: 0x13CD96, size: 0x8, addend: 0x0, symName: __ZNSt3__111basic_regexIcNS_12regex_traitsIcEEE21__parse_basic_reg_expINS_11__wrap_iterIPKcEEEET_S9_S9_, symObjAddr: 0x149E0, symBinAddr: 0x1000231A0, symSize: 0x150 }
  - { offsetInCU: 0xAAB14, offset: 0x13D1C2, size: 0x8, addend: 0x0, symName: __ZNSt3__111basic_regexIcNS_12regex_traitsIcEEE12__parse_grepINS_11__wrap_iterIPKcEEEET_S9_S9_, symObjAddr: 0x14CC0, symBinAddr: 0x100023480, symSize: 0x1E0 }
  - { offsetInCU: 0xAB375, offset: 0x13DA23, size: 0x8, addend: 0x0, symName: __ZNSt3__111basic_regexIcNS_12regex_traitsIcEEE17__parse_assertionINS_11__wrap_iterIPKcEEEET_S9_S9_, symObjAddr: 0x152A0, symBinAddr: 0x100023A60, symSize: 0x290 }
  - { offsetInCU: 0xABA73, offset: 0x13E121, size: 0x8, addend: 0x0, symName: __ZNSt3__111basic_regexIcNS_12regex_traitsIcEEE12__parse_atomINS_11__wrap_iterIPKcEEEET_S9_S9_, symObjAddr: 0x15530, symBinAddr: 0x100023CF0, symSize: 0x2E0 }
  - { offsetInCU: 0xABF24, offset: 0x13E5D2, size: 0x8, addend: 0x0, symName: __ZNSt3__111basic_regexIcNS_12regex_traitsIcEEE23__parse_ERE_dupl_symbolINS_11__wrap_iterIPKcEEEET_S9_S9_PNS_16__owns_one_stateIcEEjj, symObjAddr: 0x15810, symBinAddr: 0x100023FD0, symSize: 0x3B0 }
  - { offsetInCU: 0xAC821, offset: 0x13EECF, size: 0x8, addend: 0x0, symName: __ZNSt3__111basic_regexIcNS_12regex_traitsIcEEE18__parse_nondupl_REINS_11__wrap_iterIPKcEEEET_S9_S9_, symObjAddr: 0x1CC40, symBinAddr: 0x10002B170, symSize: 0x1D0 }
  - { offsetInCU: 0xACE7E, offset: 0x13F52C, size: 0x8, addend: 0x0, symName: __ZNSt3__111basic_regexIcNS_12regex_traitsIcEEE22__parse_RE_dupl_symbolINS_11__wrap_iterIPKcEEEET_S9_S9_PNS_16__owns_one_stateIcEEjj, symObjAddr: 0x1CE10, symBinAddr: 0x10002B340, symSize: 0x260 }
  - { offsetInCU: 0xAD602, offset: 0x13FCB0, size: 0x8, addend: 0x0, symName: __ZNSt3__111basic_regexIcNS_12regex_traitsIcEEE32__parse_one_char_or_coll_elem_REINS_11__wrap_iterIPKcEEEET_S9_S9_, symObjAddr: 0x1D070, symBinAddr: 0x10002B5A0, symSize: 0xF0 }
  - { offsetInCU: 0xAD65C, offset: 0x13FD0A, size: 0x8, addend: 0x0, symName: __ZNSt3__111basic_regexIcNS_12regex_traitsIcEEE22__parse_ERE_expressionINS_11__wrap_iterIPKcEEEET_S9_S9_, symObjAddr: 0x1D250, symBinAddr: 0x10002B780, symSize: 0x260 }
  - { offsetInCU: 0xADBDD, offset: 0x14028B, size: 0x8, addend: 0x0, symName: __ZNSt3__111__end_stateIcED1Ev, symObjAddr: 0x150D0, symBinAddr: 0x100023890, symSize: 0x10 }
  - { offsetInCU: 0xADC09, offset: 0x1402B7, size: 0x8, addend: 0x0, symName: __ZNSt3__111__end_stateIcED0Ev, symObjAddr: 0x150E0, symBinAddr: 0x1000238A0, symSize: 0x10 }
  - { offsetInCU: 0xADC29, offset: 0x1402D7, size: 0x8, addend: 0x0, symName: __ZNKSt3__111__end_stateIcE6__execERNS_7__stateIcEE, symObjAddr: 0x150F0, symBinAddr: 0x1000238B0, symSize: 0x10 }
  - { offsetInCU: 0xADC5F, offset: 0x14030D, size: 0x8, addend: 0x0, symName: __ZNKSt3__16__nodeIcE12__exec_splitEbRNS_7__stateIcEE, symObjAddr: 0x15100, symBinAddr: 0x1000238C0, symSize: 0x10 }
  - { offsetInCU: 0xADCA6, offset: 0x140354, size: 0x8, addend: 0x0, symName: __ZNKSt3__16__nodeIcE6__execERNS_7__stateIcEE, symObjAddr: 0x15110, symBinAddr: 0x1000238D0, symSize: 0x10 }
  - { offsetInCU: 0xADCF2, offset: 0x1403A0, size: 0x8, addend: 0x0, symName: __ZNSt3__120__shared_ptr_pointerIPNS_13__empty_stateIcEENS_10shared_ptrIS2_E27__shared_ptr_default_deleteIS2_S2_EENS_9allocatorIS2_EEED1Ev, symObjAddr: 0x15120, symBinAddr: 0x1000238E0, symSize: 0x10 }
  - { offsetInCU: 0xADD4A, offset: 0x1403F8, size: 0x8, addend: 0x0, symName: __ZNSt3__120__shared_ptr_pointerIPNS_13__empty_stateIcEENS_10shared_ptrIS2_E27__shared_ptr_default_deleteIS2_S2_EENS_9allocatorIS2_EEED0Ev, symObjAddr: 0x15130, symBinAddr: 0x1000238F0, symSize: 0x20 }
  - { offsetInCU: 0xADDAF, offset: 0x14045D, size: 0x8, addend: 0x0, symName: __ZNSt3__120__shared_ptr_pointerIPNS_13__empty_stateIcEENS_10shared_ptrIS2_E27__shared_ptr_default_deleteIS2_S2_EENS_9allocatorIS2_EEE16__on_zero_sharedEv, symObjAddr: 0x15150, symBinAddr: 0x100023910, symSize: 0x20 }
  - { offsetInCU: 0xADE01, offset: 0x1404AF, size: 0x8, addend: 0x0, symName: __ZNKSt3__120__shared_ptr_pointerIPNS_13__empty_stateIcEENS_10shared_ptrIS2_E27__shared_ptr_default_deleteIS2_S2_EENS_9allocatorIS2_EEE13__get_deleterERKSt9type_info, symObjAddr: 0x15170, symBinAddr: 0x100023930, symSize: 0x20 }
  - { offsetInCU: 0xADEAE, offset: 0x14055C, size: 0x8, addend: 0x0, symName: __ZNSt3__120__shared_ptr_pointerIPNS_13__empty_stateIcEENS_10shared_ptrIS2_E27__shared_ptr_default_deleteIS2_S2_EENS_9allocatorIS2_EEE21__on_zero_shared_weakEv, symObjAddr: 0x15190, symBinAddr: 0x100023950, symSize: 0x10 }
  - { offsetInCU: 0xADF81, offset: 0x14062F, size: 0x8, addend: 0x0, symName: __ZNSt3__113__empty_stateIcED1Ev, symObjAddr: 0x151A0, symBinAddr: 0x100023960, symSize: 0x30 }
  - { offsetInCU: 0xADFED, offset: 0x14069B, size: 0x8, addend: 0x0, symName: __ZNSt3__113__empty_stateIcED0Ev, symObjAddr: 0x151D0, symBinAddr: 0x100023990, symSize: 0x40 }
  - { offsetInCU: 0xAE094, offset: 0x140742, size: 0x8, addend: 0x0, symName: __ZNKSt3__113__empty_stateIcE6__execERNS_7__stateIcEE, symObjAddr: 0x15210, symBinAddr: 0x1000239D0, symSize: 0x20 }
  - { offsetInCU: 0xAE0E7, offset: 0x140795, size: 0x8, addend: 0x0, symName: __ZNSt3__116__owns_one_stateIcED1Ev, symObjAddr: 0x15230, symBinAddr: 0x1000239F0, symSize: 0x30 }
  - { offsetInCU: 0xAE150, offset: 0x1407FE, size: 0x8, addend: 0x0, symName: __ZNSt3__116__owns_one_stateIcED0Ev, symObjAddr: 0x15260, symBinAddr: 0x100023A20, symSize: 0x40 }
  - { offsetInCU: 0xAE2C8, offset: 0x140976, size: 0x8, addend: 0x0, symName: __ZNSt3__111basic_regexIcNS_12regex_traitsIcEEEC1B8ue170006Ev, symObjAddr: 0x15BC0, symBinAddr: 0x100024380, symSize: 0x60 }
  - { offsetInCU: 0xAE38F, offset: 0x140A3D, size: 0x8, addend: 0x0, symName: __ZNSt3__111basic_regexIcNS_12regex_traitsIcEEE16__push_lookaheadERKS3_bj, symObjAddr: 0x15C20, symBinAddr: 0x1000243E0, symSize: 0xC0 }
  - { offsetInCU: 0xAE783, offset: 0x140E31, size: 0x8, addend: 0x0, symName: __ZNSt3__111basic_regexIcNS_12regex_traitsIcEEE26__parse_bracket_expressionINS_11__wrap_iterIPKcEEEET_S9_S9_, symObjAddr: 0x16440, symBinAddr: 0x100024C00, symSize: 0x140 }
  - { offsetInCU: 0xAEA90, offset: 0x14113E, size: 0x8, addend: 0x0, symName: __ZNSt3__111basic_regexIcNS_12regex_traitsIcEEE19__parse_atom_escapeINS_11__wrap_iterIPKcEEEET_S9_S9_, symObjAddr: 0x16330, symBinAddr: 0x100024AF0, symSize: 0x110 }
  - { offsetInCU: 0xAED3F, offset: 0x1413ED, size: 0x8, addend: 0x0, symName: __ZNSt3__111basic_regexIcNS_12regex_traitsIcEEE25__parse_pattern_characterINS_11__wrap_iterIPKcEEEET_S9_S9_, symObjAddr: 0x165D0, symBinAddr: 0x100024D90, symSize: 0x1B0 }
  - { offsetInCU: 0xAEF44, offset: 0x1415F2, size: 0x8, addend: 0x0, symName: __ZNSt3__111basic_regexIcNS_12regex_traitsIcEEE11__push_loopEmmPNS_16__owns_one_stateIcEEmmb, symObjAddr: 0x1C4B0, symBinAddr: 0x10002A9E0, symSize: 0x150 }
  - { offsetInCU: 0xAF531, offset: 0x141BDF, size: 0x8, addend: 0x0, symName: __ZNSt3__120__l_anchor_multilineIcED1Ev, symObjAddr: 0x15D30, symBinAddr: 0x1000244F0, symSize: 0x30 }
  - { offsetInCU: 0xAF5BA, offset: 0x141C68, size: 0x8, addend: 0x0, symName: __ZNSt3__120__l_anchor_multilineIcED0Ev, symObjAddr: 0x15D60, symBinAddr: 0x100024520, symSize: 0x40 }
  - { offsetInCU: 0xAF651, offset: 0x141CFF, size: 0x8, addend: 0x0, symName: __ZNKSt3__120__l_anchor_multilineIcE6__execERNS_7__stateIcEE, symObjAddr: 0x15DA0, symBinAddr: 0x100024560, symSize: 0x60 }
  - { offsetInCU: 0xAF6A4, offset: 0x141D52, size: 0x8, addend: 0x0, symName: __ZNSt3__120__r_anchor_multilineIcED1Ev, symObjAddr: 0x15E00, symBinAddr: 0x1000245C0, symSize: 0x30 }
  - { offsetInCU: 0xAF72D, offset: 0x141DDB, size: 0x8, addend: 0x0, symName: __ZNSt3__120__r_anchor_multilineIcED0Ev, symObjAddr: 0x15E30, symBinAddr: 0x1000245F0, symSize: 0x40 }
  - { offsetInCU: 0xAF7C4, offset: 0x141E72, size: 0x8, addend: 0x0, symName: __ZNKSt3__120__r_anchor_multilineIcE6__execERNS_7__stateIcEE, symObjAddr: 0x15E70, symBinAddr: 0x100024630, symSize: 0x50 }
  - { offsetInCU: 0xAF817, offset: 0x141EC5, size: 0x8, addend: 0x0, symName: __ZNSt3__115__word_boundaryIcNS_12regex_traitsIcEEED1Ev, symObjAddr: 0x15EC0, symBinAddr: 0x100024680, symSize: 0x50 }
  - { offsetInCU: 0xAF8DA, offset: 0x141F88, size: 0x8, addend: 0x0, symName: __ZNSt3__115__word_boundaryIcNS_12regex_traitsIcEEED0Ev, symObjAddr: 0x15F10, symBinAddr: 0x1000246D0, symSize: 0x50 }
  - { offsetInCU: 0xAFA25, offset: 0x1420D3, size: 0x8, addend: 0x0, symName: __ZNKSt3__115__word_boundaryIcNS_12regex_traitsIcEEE6__execERNS_7__stateIcEE, symObjAddr: 0x15F60, symBinAddr: 0x100024720, symSize: 0x110 }
  - { offsetInCU: 0xAFBCA, offset: 0x142278, size: 0x8, addend: 0x0, symName: __ZNSt3__111__lookaheadIcNS_12regex_traitsIcEEED1Ev, symObjAddr: 0x16070, symBinAddr: 0x100024830, symSize: 0x90 }
  - { offsetInCU: 0xAFD6E, offset: 0x14241C, size: 0x8, addend: 0x0, symName: __ZNSt3__111__lookaheadIcNS_12regex_traitsIcEEED0Ev, symObjAddr: 0x16100, symBinAddr: 0x1000248C0, symSize: 0x90 }
  - { offsetInCU: 0xAFF1E, offset: 0x1425CC, size: 0x8, addend: 0x0, symName: __ZNKSt3__111__lookaheadIcNS_12regex_traitsIcEEE6__execERNS_7__stateIcEE, symObjAddr: 0x16190, symBinAddr: 0x100024950, symSize: 0x1A0 }
  - { offsetInCU: 0xB04DE, offset: 0x142B8C, size: 0x8, addend: 0x0, symName: __ZNSt3__111basic_regexIcNS_12regex_traitsIcEEE11__push_charEc, symObjAddr: 0x17030, symBinAddr: 0x1000257F0, symSize: 0x140 }
  - { offsetInCU: 0xB087D, offset: 0x142F2B, size: 0x8, addend: 0x0, symName: __ZNSt3__111basic_regexIcNS_12regex_traitsIcEEE15__push_back_refEi, symObjAddr: 0x171C0, symBinAddr: 0x100025980, symSize: 0xD0 }
  - { offsetInCU: 0xB0AD1, offset: 0x14317F, size: 0x8, addend: 0x0, symName: __ZNSt3__111basic_regexIcNS_12regex_traitsIcEEE30__parse_character_class_escapeINS_11__wrap_iterIPKcEEEET_S9_S9_, symObjAddr: 0x16840, symBinAddr: 0x100025000, symSize: 0x2E0 }
  - { offsetInCU: 0xB0FEF, offset: 0x14369D, size: 0x8, addend: 0x0, symName: __ZNSt3__111basic_regexIcNS_12regex_traitsIcEEE24__parse_character_escapeINS_11__wrap_iterIPKcEEEET_S9_S9_PNS_12basic_stringIcNS_11char_traitsIcEENS_9allocatorIcEEEE, symObjAddr: 0x16B20, symBinAddr: 0x1000252E0, symSize: 0x510 }
  - { offsetInCU: 0xB1E84, offset: 0x144532, size: 0x8, addend: 0x0, symName: __ZNSt3__120__bracket_expressionIcNS_12regex_traitsIcEEEC2B8ue170006ERKS2_PNS_6__nodeIcEEbbb, symObjAddr: 0x18180, symBinAddr: 0x100026940, symSize: 0x1B0 }
  - { offsetInCU: 0xB263B, offset: 0x144CE9, size: 0x8, addend: 0x0, symName: __ZNSt3__120__bracket_expressionIcNS_12regex_traitsIcEEE10__add_charB8ue170006Ec, symObjAddr: 0x178B0, symBinAddr: 0x100026070, symSize: 0x8D0 }
  - { offsetInCU: 0xB3289, offset: 0x145937, size: 0x8, addend: 0x0, symName: __ZNSt3__111basic_regexIcNS_12regex_traitsIcEEE23__parse_expression_termINS_11__wrap_iterIPKcEEEET_S9_S9_PNS_20__bracket_expressionIcS2_EE, symObjAddr: 0x196B0, symBinAddr: 0x100027E70, symSize: 0x480 }
  - { offsetInCU: 0xB4405, offset: 0x146AB3, size: 0x8, addend: 0x0, symName: __ZNSt3__123__match_any_but_newlineIcED1Ev, symObjAddr: 0x16780, symBinAddr: 0x100024F40, symSize: 0x30 }
  - { offsetInCU: 0xB448E, offset: 0x146B3C, size: 0x8, addend: 0x0, symName: __ZNSt3__123__match_any_but_newlineIcED0Ev, symObjAddr: 0x167B0, symBinAddr: 0x100024F70, symSize: 0x40 }
  - { offsetInCU: 0xB4959, offset: 0x147007, size: 0x8, addend: 0x0, symName: __ZNSt3__118__match_char_icaseIcNS_12regex_traitsIcEEED1Ev, symObjAddr: 0x17290, symBinAddr: 0x100025A50, symSize: 0x50 }
  - { offsetInCU: 0xB4A1C, offset: 0x1470CA, size: 0x8, addend: 0x0, symName: __ZNSt3__118__match_char_icaseIcNS_12regex_traitsIcEEED0Ev, symObjAddr: 0x172E0, symBinAddr: 0x100025AA0, symSize: 0x50 }
  - { offsetInCU: 0xB4AEB, offset: 0x147199, size: 0x8, addend: 0x0, symName: __ZNKSt3__118__match_char_icaseIcNS_12regex_traitsIcEEE6__execERNS_7__stateIcEE, symObjAddr: 0x17330, symBinAddr: 0x100025AF0, symSize: 0x50 }
  - { offsetInCU: 0xB4BA6, offset: 0x147254, size: 0x8, addend: 0x0, symName: __ZNSt3__120__match_char_collateIcNS_12regex_traitsIcEEED1Ev, symObjAddr: 0x17380, symBinAddr: 0x100025B40, symSize: 0x50 }
  - { offsetInCU: 0xB4C69, offset: 0x147317, size: 0x8, addend: 0x0, symName: __ZNSt3__120__match_char_collateIcNS_12regex_traitsIcEEED0Ev, symObjAddr: 0x173D0, symBinAddr: 0x100025B90, symSize: 0x50 }
  - { offsetInCU: 0xB4D38, offset: 0x1473E6, size: 0x8, addend: 0x0, symName: __ZNKSt3__120__match_char_collateIcNS_12regex_traitsIcEEE6__execERNS_7__stateIcEE, symObjAddr: 0x17420, symBinAddr: 0x100025BE0, symSize: 0x40 }
  - { offsetInCU: 0xB4DA8, offset: 0x147456, size: 0x8, addend: 0x0, symName: __ZNSt3__112__match_charIcED1Ev, symObjAddr: 0x17460, symBinAddr: 0x100025C20, symSize: 0x30 }
  - { offsetInCU: 0xB4E31, offset: 0x1474DF, size: 0x8, addend: 0x0, symName: __ZNSt3__112__match_charIcED0Ev, symObjAddr: 0x17490, symBinAddr: 0x100025C50, symSize: 0x40 }
  - { offsetInCU: 0xB4EC8, offset: 0x147576, size: 0x8, addend: 0x0, symName: __ZNKSt3__112__match_charIcE6__execERNS_7__stateIcEE, symObjAddr: 0x174D0, symBinAddr: 0x100025C90, symSize: 0x40 }
  - { offsetInCU: 0xB4F38, offset: 0x1475E6, size: 0x8, addend: 0x0, symName: __ZNSt3__116__back_ref_icaseIcNS_12regex_traitsIcEEED1Ev, symObjAddr: 0x17510, symBinAddr: 0x100025CD0, symSize: 0x50 }
  - { offsetInCU: 0xB4FFB, offset: 0x1476A9, size: 0x8, addend: 0x0, symName: __ZNSt3__116__back_ref_icaseIcNS_12regex_traitsIcEEED0Ev, symObjAddr: 0x17560, symBinAddr: 0x100025D20, symSize: 0x50 }
  - { offsetInCU: 0xB50CA, offset: 0x147778, size: 0x8, addend: 0x0, symName: __ZNKSt3__116__back_ref_icaseIcNS_12regex_traitsIcEEE6__execERNS_7__stateIcEE, symObjAddr: 0x175B0, symBinAddr: 0x100025D70, symSize: 0xD0 }
  - { offsetInCU: 0xB523D, offset: 0x1478EB, size: 0x8, addend: 0x0, symName: __ZNSt3__118__back_ref_collateIcNS_12regex_traitsIcEEED1Ev, symObjAddr: 0x17680, symBinAddr: 0x100025E40, symSize: 0x50 }
  - { offsetInCU: 0xB5300, offset: 0x1479AE, size: 0x8, addend: 0x0, symName: __ZNSt3__118__back_ref_collateIcNS_12regex_traitsIcEEED0Ev, symObjAddr: 0x176D0, symBinAddr: 0x100025E90, symSize: 0x50 }
  - { offsetInCU: 0xB53CF, offset: 0x147A7D, size: 0x8, addend: 0x0, symName: __ZNKSt3__118__back_ref_collateIcNS_12regex_traitsIcEEE6__execERNS_7__stateIcEE, symObjAddr: 0x17720, symBinAddr: 0x100025EE0, symSize: 0x80 }
  - { offsetInCU: 0xB54AD, offset: 0x147B5B, size: 0x8, addend: 0x0, symName: __ZNSt3__110__back_refIcED1Ev, symObjAddr: 0x177A0, symBinAddr: 0x100025F60, symSize: 0x30 }
  - { offsetInCU: 0xB5536, offset: 0x147BE4, size: 0x8, addend: 0x0, symName: __ZNSt3__110__back_refIcED0Ev, symObjAddr: 0x177D0, symBinAddr: 0x100025F90, symSize: 0x40 }
  - { offsetInCU: 0xB55CD, offset: 0x147C7B, size: 0x8, addend: 0x0, symName: __ZNKSt3__110__back_refIcE6__execERNS_7__stateIcEE, symObjAddr: 0x17810, symBinAddr: 0x100025FD0, symSize: 0xA0 }
  - { offsetInCU: 0xB5B30, offset: 0x1481DE, size: 0x8, addend: 0x0, symName: __ZNKSt3__16vectorIcNS_9allocatorIcEEE20__throw_length_errorB8ue170006Ev, symObjAddr: 0x19650, symBinAddr: 0x100027E10, symSize: 0x10 }
  - { offsetInCU: 0xB5B5A, offset: 0x148208, size: 0x8, addend: 0x0, symName: __ZNSt3__119__throw_regex_errorB8ue170006ILNS_15regex_constants10error_typeE5EEEvv, symObjAddr: 0x19660, symBinAddr: 0x100027E20, symSize: 0x50 }
  - { offsetInCU: 0xB5D3F, offset: 0x1483ED, size: 0x8, addend: 0x0, symName: __ZNSt3__16vectorINS_4pairINS_12basic_stringIcNS_11char_traitsIcEENS_9allocatorIcEEEES7_EENS5_IS8_EEED1B8ue170006Ev, symObjAddr: 0x18330, symBinAddr: 0x100026AF0, symSize: 0x90 }
  - { offsetInCU: 0xB6240, offset: 0x1488EE, size: 0x8, addend: 0x0, symName: __ZNSt3__120__bracket_expressionIcNS_12regex_traitsIcEEED1Ev, symObjAddr: 0x183C0, symBinAddr: 0x100026B80, symSize: 0x10 }
  - { offsetInCU: 0xB6276, offset: 0x148924, size: 0x8, addend: 0x0, symName: __ZNSt3__120__bracket_expressionIcNS_12regex_traitsIcEEED2Ev, symObjAddr: 0x19070, symBinAddr: 0x100027830, symSize: 0x150 }
  - { offsetInCU: 0xB6D81, offset: 0x14942F, size: 0x8, addend: 0x0, symName: __ZNSt3__120__bracket_expressionIcNS_12regex_traitsIcEEED0Ev, symObjAddr: 0x183D0, symBinAddr: 0x100026B90, symSize: 0x20 }
  - { offsetInCU: 0xB7257, offset: 0x149905, size: 0x8, addend: 0x0, symName: __ZNKSt3__120__bracket_expressionIcNS_12regex_traitsIcEEE6__execERNS_7__stateIcEE, symObjAddr: 0x183F0, symBinAddr: 0x100026BB0, symSize: 0xC40 }
  - { offsetInCU: 0xB8CDA, offset: 0x14B388, size: 0x8, addend: 0x0, symName: __ZNKSt3__112regex_traitsIcE20__lookup_collatenameIPcEENS_12basic_stringIcNS_11char_traitsIcEENS_9allocatorIcEEEET_SA_c, symObjAddr: 0x192C0, symBinAddr: 0x100027A80, symSize: 0x230 }
  - { offsetInCU: 0xB9854, offset: 0x14BF02, size: 0x8, addend: 0x0, symName: __ZNKSt3__112regex_traitsIcE9transformIPcEENS_12basic_stringIcNS_11char_traitsIcEENS_9allocatorIcEEEET_SA_, symObjAddr: 0x191C0, symBinAddr: 0x100027980, symSize: 0x100 }
  - { offsetInCU: 0xB9E4F, offset: 0x14C4FD, size: 0x8, addend: 0x0, symName: __ZNKSt3__112regex_traitsIcE19__transform_primaryIPcEENS_12basic_stringIcNS_11char_traitsIcEENS_9allocatorIcEEEET_SA_c, symObjAddr: 0x194F0, symBinAddr: 0x100027CB0, symSize: 0x160 }
  - { offsetInCU: 0xBA579, offset: 0x14CC27, size: 0x8, addend: 0x0, symName: __ZNSt3__14pairINS_12basic_stringIcNS_11char_traitsIcEENS_9allocatorIcEEEES6_ED1Ev, symObjAddr: 0x19030, symBinAddr: 0x1000277F0, symSize: 0x40 }
  - { offsetInCU: 0xBA897, offset: 0x14CF45, size: 0x8, addend: 0x0, symName: __ZNSt3__111basic_regexIcNS_12regex_traitsIcEEE25__parse_equivalence_classINS_11__wrap_iterIPKcEEEET_S9_S9_PNS_20__bracket_expressionIcS2_EE, symObjAddr: 0x19B30, symBinAddr: 0x1000282F0, symSize: 0x2C0 }
  - { offsetInCU: 0xBB7FA, offset: 0x14DEA8, size: 0x8, addend: 0x0, symName: __ZNSt3__111basic_regexIcNS_12regex_traitsIcEEE18__parse_awk_escapeINS_11__wrap_iterIPKcEEEET_S9_S9_PNS_12basic_stringIcNS_11char_traitsIcEENS_9allocatorIcEEEE, symObjAddr: 0x1A150, symBinAddr: 0x100028910, symSize: 0x460 }
  - { offsetInCU: 0xBC155, offset: 0x14E803, size: 0x8, addend: 0x0, symName: __ZNSt3__111basic_regexIcNS_12regex_traitsIcEEE24__parse_collating_symbolINS_11__wrap_iterIPKcEEEET_S9_S9_RNS_12basic_stringIcNS_11char_traitsIcEENS_9allocatorIcEEEE, symObjAddr: 0x19E90, symBinAddr: 0x100028650, symSize: 0xE0 }
  - { offsetInCU: 0xBC5F0, offset: 0x14EC9E, size: 0x8, addend: 0x0, symName: __ZNSt3__111basic_regexIcNS_12regex_traitsIcEEE23__parse_character_classINS_11__wrap_iterIPKcEEEET_S9_S9_PNS_20__bracket_expressionIcS2_EE, symObjAddr: 0x19DF0, symBinAddr: 0x1000285B0, symSize: 0xA0 }
  - { offsetInCU: 0xBC97F, offset: 0x14F02D, size: 0x8, addend: 0x0, symName: __ZNSt3__111basic_regexIcNS_12regex_traitsIcEEE20__parse_class_escapeINS_11__wrap_iterIPKcEEEET_S9_S9_RNS_12basic_stringIcNS_11char_traitsIcEENS_9allocatorIcEEEEPNS_20__bracket_expressionIcS2_EE, symObjAddr: 0x19F70, symBinAddr: 0x100028730, symSize: 0x1E0 }
  - { offsetInCU: 0xBCCF4, offset: 0x14F3A2, size: 0x8, addend: 0x0, symName: __ZNSt3__120__bracket_expressionIcNS_12regex_traitsIcEEE13__add_digraphB8ue170006Ecc, symObjAddr: 0x1A9D0, symBinAddr: 0x100029190, symSize: 0x590 }
  - { offsetInCU: 0xBD7B2, offset: 0x14FE60, size: 0x8, addend: 0x0, symName: __ZNSt3__119__throw_regex_errorB8ue170006ILNS_15regex_constants10error_typeE1EEEvv, symObjAddr: 0x1AF60, symBinAddr: 0x100029720, symSize: 0x50 }
  - { offsetInCU: 0xBD7BD, offset: 0x14FE6B, size: 0x8, addend: 0x0, symName: __ZNSt3__120__bracket_expressionIcNS_12regex_traitsIcEEE11__add_rangeB8ue170006ENS_12basic_stringIcNS_11char_traitsIcEENS_9allocatorIcEEEES9_, symObjAddr: 0x1A5B0, symBinAddr: 0x100028D70, symSize: 0x420 }
  - { offsetInCU: 0xBF16C, offset: 0x15181A, size: 0x8, addend: 0x0, symName: __ZNKSt3__112regex_traitsIcE20__lookup_collatenameINS_11__wrap_iterIPKcEEEENS_12basic_stringIcNS_11char_traitsIcEENS_9allocatorIcEEEET_SD_c, symObjAddr: 0x1AFB0, symBinAddr: 0x100029770, symSize: 0x230 }
  - { offsetInCU: 0xBFD16, offset: 0x1523C4, size: 0x8, addend: 0x0, symName: __ZNKSt3__112regex_traitsIcE19__transform_primaryINS_11__wrap_iterIPcEEEENS_12basic_stringIcNS_11char_traitsIcEENS_9allocatorIcEEEET_SC_c, symObjAddr: 0x1B1E0, symBinAddr: 0x1000299A0, symSize: 0x160 }
  - { offsetInCU: 0xC0C26, offset: 0x1532D4, size: 0x8, addend: 0x0, symName: __ZNKSt3__112regex_traitsIcE18__lookup_classnameINS_11__wrap_iterIPKcEEEEjT_S7_bc, symObjAddr: 0x1B620, symBinAddr: 0x100029B50, symSize: 0x120 }
  - { offsetInCU: 0xC1330, offset: 0x1539DE, size: 0x8, addend: 0x0, symName: __ZNSt3__120__bracket_expressionIcNS_12regex_traitsIcEEE14__add_neg_charB8ue170006Ec, symObjAddr: 0x1B740, symBinAddr: 0x100029C70, symSize: 0x8D0 }
  - { offsetInCU: 0xC2173, offset: 0x154821, size: 0x8, addend: 0x0, symName: __ZNKSt3__112regex_traitsIcE9transformINS_11__wrap_iterIPcEEEENS_12basic_stringIcNS_11char_traitsIcEENS_9allocatorIcEEEET_SC_, symObjAddr: 0x1C010, symBinAddr: 0x10002A540, symSize: 0x100 }
  - { offsetInCU: 0xC27C2, offset: 0x154E70, size: 0x8, addend: 0x0, symName: __ZNSt3__16vectorINS_4pairINS_12basic_stringIcNS_11char_traitsIcEENS_9allocatorIcEEEES7_EENS5_IS8_EEE21__push_back_slow_pathIS8_EEvOT_, symObjAddr: 0x1C160, symBinAddr: 0x10002A690, symSize: 0x1F0 }
  - { offsetInCU: 0xC340D, offset: 0x155ABB, size: 0x8, addend: 0x0, symName: __ZNKSt3__16vectorINS_4pairIccEENS_9allocatorIS2_EEE20__throw_length_errorB8ue170006Ev, symObjAddr: 0x1C360, symBinAddr: 0x10002A890, symSize: 0x10 }
  - { offsetInCU: 0xC3437, offset: 0x155AE5, size: 0x8, addend: 0x0, symName: __ZNSt3__128__begin_marked_subexpressionIcED1Ev, symObjAddr: 0x1C370, symBinAddr: 0x10002A8A0, symSize: 0x30 }
  - { offsetInCU: 0xC3C78, offset: 0x156326, size: 0x8, addend: 0x0, symName: __ZNKSt3__16vectorINS_4pairINS_12basic_stringIcNS_11char_traitsIcEENS_9allocatorIcEEEES7_EENS5_IS8_EEE20__throw_length_errorB8ue170006Ev, symObjAddr: 0x1C350, symBinAddr: 0x10002A880, symSize: 0x10 }
  - { offsetInCU: 0xC3CA2, offset: 0x156350, size: 0x8, addend: 0x0, symName: __ZNKSt3__16vectorINS_4pairIccEENS_9allocatorIS2_EEE20__throw_length_errorB8ue170006Ev, symObjAddr: 0x1C360, symBinAddr: 0x10002A890, symSize: 0x10 }
  - { offsetInCU: 0xC3CCA, offset: 0x156378, size: 0x8, addend: 0x0, symName: __ZNSt3__128__begin_marked_subexpressionIcED1Ev, symObjAddr: 0x1C370, symBinAddr: 0x10002A8A0, symSize: 0x30 }
  - { offsetInCU: 0xC3D53, offset: 0x156401, size: 0x8, addend: 0x0, symName: __ZNSt3__128__begin_marked_subexpressionIcED0Ev, symObjAddr: 0x1C3A0, symBinAddr: 0x10002A8D0, symSize: 0x40 }
  - { offsetInCU: 0xC3DEA, offset: 0x156498, size: 0x8, addend: 0x0, symName: __ZNKSt3__128__begin_marked_subexpressionIcE6__execERNS_7__stateIcEE, symObjAddr: 0x1C3E0, symBinAddr: 0x10002A910, symSize: 0x30 }
  - { offsetInCU: 0xC3E80, offset: 0x15652E, size: 0x8, addend: 0x0, symName: __ZNSt3__126__end_marked_subexpressionIcED1Ev, symObjAddr: 0x1C410, symBinAddr: 0x10002A940, symSize: 0x30 }
  - { offsetInCU: 0xC3F09, offset: 0x1565B7, size: 0x8, addend: 0x0, symName: __ZNSt3__126__end_marked_subexpressionIcED0Ev, symObjAddr: 0x1C440, symBinAddr: 0x10002A970, symSize: 0x40 }
  - { offsetInCU: 0xC3FA0, offset: 0x15664E, size: 0x8, addend: 0x0, symName: __ZNKSt3__126__end_marked_subexpressionIcE6__execERNS_7__stateIcEE, symObjAddr: 0x1C480, symBinAddr: 0x10002A9B0, symSize: 0x30 }
  - { offsetInCU: 0xC42D1, offset: 0x15697F, size: 0x8, addend: 0x0, symName: __ZNSt3__16__loopIcED0Ev, symObjAddr: 0x1C6F0, symBinAddr: 0x10002AC20, symSize: 0x60 }
  - { offsetInCU: 0xC43CA, offset: 0x156A78, size: 0x8, addend: 0x0, symName: __ZNSt3__16__loopIcED1Ev, symObjAddr: 0x1C6A0, symBinAddr: 0x10002ABD0, symSize: 0x50 }
  - { offsetInCU: 0xC44B6, offset: 0x156B64, size: 0x8, addend: 0x0, symName: __ZNKSt3__16__loopIcE6__execERNS_7__stateIcEE, symObjAddr: 0x1C750, symBinAddr: 0x10002AC80, symSize: 0x1D0 }
  - { offsetInCU: 0xC4672, offset: 0x156D20, size: 0x8, addend: 0x0, symName: __ZNKSt3__16__loopIcE12__exec_splitEbRNS_7__stateIcEE, symObjAddr: 0x1C920, symBinAddr: 0x10002AE50, symSize: 0xC0 }
  - { offsetInCU: 0xC4779, offset: 0x156E27, size: 0x8, addend: 0x0, symName: __ZNSt3__117__owns_two_statesIcED1Ev, symObjAddr: 0x1C9E0, symBinAddr: 0x10002AF10, symSize: 0x50 }
  - { offsetInCU: 0xC480D, offset: 0x156EBB, size: 0x8, addend: 0x0, symName: __ZNSt3__117__owns_two_statesIcED0Ev, symObjAddr: 0x1CA30, symBinAddr: 0x10002AF60, symSize: 0x60 }
  - { offsetInCU: 0xC48AD, offset: 0x156F5B, size: 0x8, addend: 0x0, symName: __ZNSt3__117__repeat_one_loopIcED1Ev, symObjAddr: 0x1CA90, symBinAddr: 0x10002AFC0, symSize: 0x10 }
  - { offsetInCU: 0xC48D9, offset: 0x156F87, size: 0x8, addend: 0x0, symName: __ZNSt3__117__repeat_one_loopIcED0Ev, symObjAddr: 0x1CAA0, symBinAddr: 0x10002AFD0, symSize: 0x10 }
  - { offsetInCU: 0xC4905, offset: 0x156FB3, size: 0x8, addend: 0x0, symName: __ZNKSt3__117__repeat_one_loopIcE6__execERNS_7__stateIcEE, symObjAddr: 0x1CAB0, symBinAddr: 0x10002AFE0, symSize: 0x20 }
  - { offsetInCU: 0xC4975, offset: 0x157023, size: 0x8, addend: 0x0, symName: __ZNSt3__111__alternateIcED1Ev, symObjAddr: 0x1CAD0, symBinAddr: 0x10002B000, symSize: 0x50 }
  - { offsetInCU: 0xC4A29, offset: 0x1570D7, size: 0x8, addend: 0x0, symName: __ZNSt3__111__alternateIcED0Ev, symObjAddr: 0x1CB20, symBinAddr: 0x10002B050, symSize: 0x60 }
  - { offsetInCU: 0xC4AE9, offset: 0x157197, size: 0x8, addend: 0x0, symName: __ZNKSt3__111__alternateIcE6__execERNS_7__stateIcEE, symObjAddr: 0x1CB80, symBinAddr: 0x10002B0B0, symSize: 0x10 }
  - { offsetInCU: 0xC4B1F, offset: 0x1571CD, size: 0x8, addend: 0x0, symName: __ZNKSt3__111__alternateIcE12__exec_splitEbRNS_7__stateIcEE, symObjAddr: 0x1CB90, symBinAddr: 0x10002B0C0, symSize: 0x20 }
  - { offsetInCU: 0xC4B70, offset: 0x15721E, size: 0x8, addend: 0x0, symName: __ZNSt3__121__empty_non_own_stateIcED1Ev, symObjAddr: 0x1CBB0, symBinAddr: 0x10002B0E0, symSize: 0x10 }
  - { offsetInCU: 0xC4B9C, offset: 0x15724A, size: 0x8, addend: 0x0, symName: __ZNSt3__121__empty_non_own_stateIcED0Ev, symObjAddr: 0x1CBC0, symBinAddr: 0x10002B0F0, symSize: 0x10 }
  - { offsetInCU: 0xC4BC8, offset: 0x157276, size: 0x8, addend: 0x0, symName: __ZNKSt3__121__empty_non_own_stateIcE6__execERNS_7__stateIcEE, symObjAddr: 0x1CBD0, symBinAddr: 0x10002B100, symSize: 0x20 }
  - { offsetInCU: 0xC4D27, offset: 0x1573D5, size: 0x8, addend: 0x0, symName: __ZNSt3__111basic_regexIcNS_12regex_traitsIcEEE32__parse_one_char_or_coll_elem_REINS_11__wrap_iterIPKcEEEET_S9_S9_, symObjAddr: 0x1D070, symBinAddr: 0x10002B5A0, symSize: 0xF0 }
  - { offsetInCU: 0xC5183, offset: 0x157831, size: 0x8, addend: 0x0, symName: __ZNSt3__111__match_anyIcED1Ev, symObjAddr: 0x1D160, symBinAddr: 0x10002B690, symSize: 0x30 }
  - { offsetInCU: 0xC520C, offset: 0x1578BA, size: 0x8, addend: 0x0, symName: __ZNSt3__111__match_anyIcED0Ev, symObjAddr: 0x1D190, symBinAddr: 0x10002B6C0, symSize: 0x40 }
  - { offsetInCU: 0xC52A3, offset: 0x157951, size: 0x8, addend: 0x0, symName: __ZNKSt3__111__match_anyIcE6__execERNS_7__stateIcEE, symObjAddr: 0x1D1D0, symBinAddr: 0x10002B700, symSize: 0x40 }
  - { offsetInCU: 0xC52F6, offset: 0x1579A4, size: 0x8, addend: 0x0, symName: __ZNSt3__111basic_regexIcNS_12regex_traitsIcEEE15__test_back_refEc, symObjAddr: 0x1D210, symBinAddr: 0x10002B740, symSize: 0x40 }
  - { offsetInCU: 0xC5421, offset: 0x157ACF, size: 0x8, addend: 0x0, symName: __ZNSt3__111basic_regexIcNS_12regex_traitsIcEEE20__parse_ORD_CHAR_EREINS_11__wrap_iterIPKcEEEET_S9_S9_, symObjAddr: 0x1D4B0, symBinAddr: 0x10002B9E0, symSize: 0x1B0 }
  - { offsetInCU: 0xC54AC, offset: 0x157B5A, size: 0x8, addend: 0x0, symName: __ZNSt3__111basic_regexIcNS_12regex_traitsIcEEE23__parse_QUOTED_CHAR_EREINS_11__wrap_iterIPKcEEEET_S9_S9_, symObjAddr: 0x1D660, symBinAddr: 0x10002BB90, symSize: 0x1F0 }
  - { offsetInCU: 0xC5BA8, offset: 0x158256, size: 0x8, addend: 0x0, symName: __ZNSt3__112__hash_tableINS_17__hash_value_typeINS_12basic_stringIcNS_11char_traitsIcEENS_9allocatorIcEEEEfEENS_22__unordered_map_hasherIS7_S8_NS_4hashIS7_EENS_8equal_toIS7_EELb1EEENS_21__unordered_map_equalIS7_S8_SD_SB_Lb1EEENS5_IS8_EEE11__do_rehashILb1EEEvm, symObjAddr: 0x1E640, symBinAddr: 0x10002CB70, symSize: 0x210 }
  - { offsetInCU: 0xC6021, offset: 0x1586CF, size: 0x8, addend: 0x0, symName: __ZNSt3__110unique_ptrINS_11__hash_nodeINS_17__hash_value_typeINS_12basic_stringIcNS_11char_traitsIcEENS_9allocatorIcEEEEfEEPvEENS_22__hash_node_destructorINS6_ISB_EEEEED1B8ue170006Ev, symObjAddr: 0x1E600, symBinAddr: 0x10002CB30, symSize: 0x40 }
...
